(dp0
S'92599'
p1
S'RIVERSIDE'
p2
sS'95571'
p3
S'Humboldt'
p4
sS'93254'
p5
S'SANTA BARBARA'
p6
sS'93255'
p7
S'KERN'
p8
sS'93256'
p9
S'TULARE'
p10
sS'93257'
p11
S'TULARE'
p12
sS'93250'
p13
S'KERN'
p14
sS'93251'
p15
S'KERN'
p16
sS'93252'
p17
S'KERN'
p18
sS'92096'
p19
S'SAN DIEGO'
p20
sS'92091'
p21
S'SAN DIEGO'
p22
sS'92093'
p23
S'SAN DIEGO'
p24
sS'92092'
p25
S'SAN DIEGO'
p26
sS'92653'
p27
S'ORANGE'
p28
sS'92652'
p29
S'ORANGE'
p30
sS'92651'
p31
S'ORANGE'
p32
sS'92650'
p33
S'ORANGE'
p34
sS'92657'
p35
S'ORANGE'
p36
sS'92656'
p37
S'ORANGE'
p38
sS'92655'
p39
S'ORANGE'
p40
sS'92654'
p41
S'ORANGE'
p42
sS'92305'
p43
S'SAN BERNARDINO'
p44
sS'92304'
p45
S'SAN BERNARDINO'
p46
sS'92307'
p47
S'SAN BERNARDINO'
p48
sS'92658'
p49
S'ORANGE'
p50
sS'92301'
p51
S'SAN BERNARDINO'
p52
sS'92871'
p53
S'ORANGE'
p54
sS'92870'
p55
S'ORANGE'
p56
sS'94203'
p57
S'SACRAMENTO'
p58
sS'94206'
p59
S'SACRAMENTO'
p60
sS'94207'
p61
S'SACRAMENTO'
p62
sS'94204'
p63
S'SACRAMENTO'
p64
sS'94205'
p65
S'SACRAMENTO'
p66
sS'94208'
p67
S'SACRAMENTO'
p68
sS'94209'
p69
S'SACRAMENTO'
p70
sS'96074'
p71
S'Tehama'
p72
sS'92899'
p73
S'ORANGE'
p74
sS'93430'
p75
S'SAN LUIS OBISPO'
p76
sS'96151'
p77
S'El Dorado'
p78
sS'93432'
p79
S'SAN LUIS OBISPO'
p80
sS'93433'
p81
S'SAN LUIS OBISPO'
p82
sS'93434'
p83
S'SANTA BARBARA'
p84
sS'93435'
p85
S'SAN LUIS OBISPO'
p86
sS'93436'
p87
S'SANTA BARBARA'
p88
sS'93437'
p89
S'SANTA BARBARA'
p90
sS'93438'
p91
S'SANTA BARBARA'
p92
sS'93536'
p93
S'LOS ANGELES'
p94
sS'90822'
p95
S'LOS ANGELES'
p96
sS'95363'
p97
S'Stanislaus'
p98
sS'96136'
p99
S'Lassen'
p100
sS'95799'
p101
S'Yolo'
p102
sS'95798'
p103
S'Yolo'
p104
sS'96078'
p105
S'Tehama'
p106
sS'93926'
p107
S'MONTEREY'
p108
sS'93927'
p109
S'MONTEREY'
p110
sS'93924'
p111
S'MONTEREY'
p112
sS'93925'
p113
S'MONTEREY'
p114
sS'93922'
p115
S'MONTEREY'
p116
sS'93923'
p117
S'MONTEREY'
p118
sS'93920'
p119
S'MONTEREY'
p120
sS'93921'
p121
S'MONTEREY'
p122
sS'95555'
p123
S'Humboldt'
p124
sS'95554'
p125
S'Humboldt'
p126
sS'95556'
p127
S'Humboldt'
p128
sS'95551'
p129
S'Humboldt'
p130
sS'95550'
p131
S'Humboldt'
p132
sS'93928'
p133
S'MONTEREY'
p134
sS'95552'
p135
S'Trinity'
p136
sS'90224'
p137
S'LOS ANGELES'
p138
sS'94028'
p139
S'SAN MATEO'
p140
sS'90220'
p141
S'LOS ANGELES'
p142
sS'90221'
p143
S'LOS ANGELES'
p144
sS'90222'
p145
S'LOS ANGELES'
p146
sS'90223'
p147
S'LOS ANGELES'
p148
sS'94022'
p149
S'SANTA CLARA'
p150
sS'94023'
p151
S'SANTA CLARA'
p152
sS'94020'
p153
S'SAN MATEO'
p154
sS'94021'
p155
S'SAN MATEO'
p156
sS'94026'
p157
S'SAN MATEO'
p158
sS'94027'
p159
S'SAN MATEO'
p160
sS'94024'
p161
S'SANTA CLARA'
p162
sS'94025'
p163
S'SAN MATEO'
p164
sS'90008'
p165
S'LOS ANGELES'
p166
sS'90009'
p167
S'LOS ANGELES'
p168
sS'90004'
p169
S'LOS ANGELES'
p170
sS'90005'
p171
S'LOS ANGELES'
p172
sS'90006'
p173
S'LOS ANGELES'
p174
sS'90007'
p175
S'LOS ANGELES'
p176
sS'90001'
p177
S'LOS ANGELES'
p178
sS'90002'
p179
S'LOS ANGELES'
p180
sS'90003'
p181
S'LOS ANGELES'
p182
sS'95366'
p183
S'San Joaquin'
p184
sS'95682'
p185
S'El Dorado'
p186
sS'93622'
p187
S'FRESNO'
p188
sS'95343'
p189
S'Merced'
p190
sS'94151'
p191
S'SAN FRANCISCO'
p192
sS'94158'
p193
S'SAN FRANCISCO'
p194
sS'94159'
p195
S'SAN FRANCISCO'
p196
sS'90310'
p197
S'LOS ANGELES'
p198
sS'90311'
p199
S'LOS ANGELES'
p200
sS'90312'
p201
S'LOS ANGELES'
p202
sS'90640'
p203
S'LOS ANGELES'
p204
sS'95688'
p205
S'Solano'
p206
sS'92309'
p207
S'SAN BERNARDINO'
p208
sS'95347'
p209
S'Tuolumne'
p210
sS'92308'
p211
S'SAN BERNARDINO'
p212
sS'92879'
p213
S'RIVERSIDE'
p214
sS'92878'
p215
S'RIVERSIDE'
p216
sS'94903'
p217
S'MARIN'
p218
sS'92877'
p219
S'RIVERSIDE'
p220
sS'95173'
p221
S'SANTA CLARA'
p222
sS'95172'
p223
S'SANTA CLARA'
p224
sS'95170'
p225
S'SANTA CLARA'
p226
sS'92659'
p227
S'ORANGE'
p228
sS'95776'
p229
S'Yolo'
p230
sS'95922'
p231
S'Sierra'
p232
sS'93786'
p233
S'FRESNO'
p234
sS'94516'
p235
S'CONTRA COSTA'
p236
sS'96010'
p237
S'Trinity'
p238
sS'94517'
p239
S'CONTRA COSTA'
p240
sS'94515'
p241
S'NAPA'
p242
sS'95923'
p243
S'Plumas'
p244
sS'94512'
p245
S'SOLANO'
p246
sS'94513'
p247
S'CONTRA COSTA'
p248
sS'94541'
p249
S'ALAMEDA'
p250
sS'94540'
p251
S'ALAMEDA'
p252
sS'94543'
p253
S'ALAMEDA'
p254
sS'94542'
p255
S'ALAMEDA'
p256
sS'94545'
p257
S'ALAMEDA'
p258
sS'91746'
p259
S'LOS ANGELES'
p260
sS'94547'
p261
S'CONTRA COSTA'
p262
sS'91066'
p263
S'LOS ANGELES'
p264
sS'94549'
p265
S'CONTRA COSTA'
p266
sS'94548'
p267
S'CONTRA COSTA'
p268
sS'95012'
p269
S'MONTEREY'
p270
sS'91747'
p271
S'LOS ANGELES'
p272
sS'95014'
p273
S'SANTA CLARA'
p274
sS'95015'
p275
S'SANTA CLARA'
p276
sS'95017'
p277
S'SANTA CRUZ'
p278
sS'95695'
p279
S'Yolo'
p280
sS'95368'
p281
S'Stanislaus'
p282
sS'94074'
p283
S'SAN MATEO'
p284
sS'95304'
p285
S'San Joaquin'
p286
sS'95305'
p287
S'Tuolumne'
p288
sS'95306'
p289
S'Mariposa'
p290
sS'95307'
p291
S'Stanislaus'
p292
sS'95301'
p293
S'Merced'
p294
sS'95303'
p295
S'Merced'
p296
sS'95309'
p297
S'Tuolumne'
p298
sS'94070'
p299
S'SAN MATEO'
p300
sS'96128'
p301
S'Lassen'
p302
sS'94497'
p303
S'SAN MATEO'
p304
sS'94948'
p305
S'MARIN'
p306
sS'94945'
p307
S'MARIN'
p308
sS'94947'
p309
S'MARIN'
p310
sS'94946'
p311
S'MARIN'
p312
sS'94941'
p313
S'MARIN'
p314
sS'94940'
p315
S'MARIN'
p316
sS'94942'
p317
S'MARIN'
p318
sS'92799'
p319
S'ORANGE'
p320
sS'92262'
p321
S'RIVERSIDE'
p322
sS'92263'
p323
S'RIVERSIDE'
p324
sS'92260'
p325
S'RIVERSIDE'
p326
sS'92261'
p327
S'RIVERSIDE'
p328
sS'92266'
p329
S'IMPERIAL'
p330
sS'92267'
p331
S'SAN BERNARDINO'
p332
sS'92264'
p333
S'RIVERSIDE'
p334
sS'95945'
p335
S'Nevada'
p336
sS'92268'
p337
S'SAN BERNARDINO'
p338
sS'95949'
p339
S'Nevada'
p340
sS'91209'
p341
S'LOS ANGELES'
p342
sS'91208'
p343
S'LOS ANGELES'
p344
sS'91201'
p345
S'LOS ANGELES'
p346
sS'91203'
p347
S'LOS ANGELES'
p348
sS'91202'
p349
S'LOS ANGELES'
p350
sS'91205'
p351
S'LOS ANGELES'
p352
sS'91204'
p353
S'LOS ANGELES'
p354
sS'91207'
p355
S'LOS ANGELES'
p356
sS'91206'
p357
S'LOS ANGELES'
p358
sS'96150'
p359
S'El Dorado'
p360
sS'96152'
p361
S'El Dorado'
p362
sS'96091'
p363
S'Trinity'
p364
sS'96090'
p365
S'Tehama'
p366
sS'96093'
p367
S'Trinity'
p368
sS'96092'
p369
S'Tehama'
p370
sS'96095'
p371
S'Shasta'
p372
sS'96094'
p373
S'Siskiyou'
p374
sS'96097'
p375
S'Siskiyou'
p376
sS'96096'
p377
S'Shasta'
p378
sS'96099'
p379
S'Shasta'
p380
sS'96154'
p381
S'El Dorado'
p382
sS'96155'
p383
S'El Dorado'
p384
sS'93221'
p385
S'TULARE'
p386
sS'93220'
p387
S'KERN'
p388
sS'93223'
p389
S'TULARE'
p390
sS'93222'
p391
S'KERN'
p392
sS'93225'
p393
S'KERN'
p394
sS'93224'
p395
S'KERN'
p396
sS'92088'
p397
S'SAN DIEGO'
p398
sS'93226'
p399
S'KERN'
p400
sS'92086'
p401
S'SAN DIEGO'
p402
sS'92084'
p403
S'SAN DIEGO'
p404
sS'92085'
p405
S'SAN DIEGO'
p406
sS'92082'
p407
S'SAN DIEGO'
p408
sS'92083'
p409
S'SAN DIEGO'
p410
sS'92081'
p411
S'SAN DIEGO'
p412
sS'92868'
p413
S'ORANGE'
p414
sS'92869'
p415
S'ORANGE'
p416
sS'95237'
p417
S'SAN JOAQUIN'
p418
sS'92648'
p419
S'ORANGE'
p420
sS'91510'
p421
S'LOS ANGELES'
p422
sS'92318'
p423
S'SAN BERNARDINO'
p424
sS'92316'
p425
S'SAN BERNARDINO'
p426
sS'92317'
p427
S'SAN BERNARDINO'
p428
sS'92646'
p429
S'ORANGE'
p430
sS'92315'
p431
S'SAN BERNARDINO'
p432
sS'92312'
p433
S'SAN BERNARDINO'
p434
sS'92313'
p435
S'SAN BERNARDINO'
p436
sS'92310'
p437
S'SAN BERNARDINO'
p438
sS'92311'
p439
S'SAN BERNARDINO'
p440
sS'95247'
p441
S'CALAVERAS'
p442
sS'94239'
p443
S'SACRAMENTO'
p444
sS'94237'
p445
S'SACRAMENTO'
p446
sS'94236'
p447
S'SACRAMENTO'
p448
sS'94235'
p449
S'SACRAMENTO'
p450
sS'94234'
p451
S'SACRAMENTO'
p452
sS'94232'
p453
S'SACRAMENTO'
p454
sS'94230'
p455
S'SACRAMENTO'
p456
sS'92886'
p457
S'ORANGE'
p458
sS'92887'
p459
S'ORANGE'
p460
sS'92885'
p461
S'ORANGE'
p462
sS'92882'
p463
S'RIVERSIDE'
p464
sS'92883'
p465
S'RIVERSIDE'
p466
sS'92880'
p467
S'RIVERSIDE'
p468
sS'92881'
p469
S'RIVERSIDE'
p470
sS'96019'
p471
S'Shasta'
p472
sS'96040'
p473
S'Shasta'
p474
sS'93130'
p475
S'SANTA BARBARA'
p476
sS'93531'
p477
S'KERN'
p478
sS'94309'
p479
S'SANTA CLARA'
p480
sS'93530'
p481
S'INYO'
p482
sS'94303'
p483
S'SANTA CLARA'
p484
sS'94302'
p485
S'SANTA CLARA'
p486
sS'94301'
p487
S'SANTA CLARA'
p488
sS'94306'
p489
S'SANTA CLARA'
p490
sS'94305'
p491
S'SANTA CLARA'
p492
sS'94304'
p493
S'SANTA CLARA'
p494
sS'93020'
p495
S'VENTURA'
p496
sS'90717'
p497
S'LOS ANGELES'
p498
sS'90813'
p499
S'LOS ANGELES'
p500
sS'96015'
p501
S'Modoc'
p502
sS'90810'
p503
S'LOS ANGELES'
p504
sS'90815'
p505
S'LOS ANGELES'
p506
sS'90814'
p507
S'LOS ANGELES'
p508
sS'95335'
p509
S'Tuolumne'
p510
sS'96017'
p511
S'Shasta'
p512
sS'95334'
p513
S'Merced'
p514
sS'93024'
p515
S'VENTURA'
p516
sS'95337'
p517
S'San Joaquin'
p518
sS'95336'
p519
S'San Joaquin'
p520
sS'95330'
p521
S'San Joaquin'
p522
sS'94017'
p523
S'SAN MATEO'
p524
sS'93912'
p525
S'MONTEREY'
p526
sS'94015'
p527
S'SAN MATEO'
p528
sS'94014'
p529
S'SAN MATEO'
p530
sS'95333'
p531
S'Merced'
p532
sS'93915'
p533
S'MONTEREY'
p534
sS'94010'
p535
S'SAN MATEO'
p536
sS'95039'
p537
S'MONTEREY'
p538
sS'95547'
p539
S'Humboldt'
p540
sS'95545'
p541
S'Humboldt'
p542
sS'95542'
p543
S'Humboldt'
p544
sS'95543'
p545
S'Del Norte'
p546
sS'94019'
p547
S'SAN MATEO'
p548
sS'94018'
p549
S'SAN MATEO'
p550
sS'90251'
p551
S'LOS ANGELES'
p552
sS'90250'
p553
S'LOS ANGELES'
p554
sS'90255'
p555
S'LOS ANGELES'
p556
sS'90254'
p557
S'LOS ANGELES'
p558
sS'95201'
p559
S'SAN JOAQUIN'
p560
sS'95521'
p561
S'Humboldt'
p562
sS'90079'
p563
S'LOS ANGELES'
p564
sS'90078'
p565
S'LOS ANGELES'
p566
sS'90071'
p567
S'LOS ANGELES'
p568
sS'90070'
p569
S'LOS ANGELES'
p570
sS'90073'
p571
S'LOS ANGELES'
p572
sS'90072'
p573
S'LOS ANGELES'
p574
sS'90075'
p575
S'LOS ANGELES'
p576
sS'90074'
p577
S'LOS ANGELES'
p578
sS'90077'
p579
S'LOS ANGELES'
p580
sS'90076'
p581
S'LOS ANGELES'
p582
sS'95527'
p583
S'Trinity'
p584
sS'94163'
p585
S'SAN FRANCISCO'
p586
sS'94161'
p587
S'SAN FRANCISCO'
p588
sS'94160'
p589
S'SAN FRANCISCO'
p590
sS'94164'
p591
S'SAN FRANCISCO'
p592
sS'90671'
p593
S'LOS ANGELES'
p594
sS'90670'
p595
S'LOS ANGELES'
p596
sS'95160'
p597
S'SANTA CLARA'
p598
sS'95161'
p599
S'SANTA CLARA'
p600
sS'95164'
p601
S'SANTA CLARA'
p602
sS'95409'
p603
S'Sonoma'
p604
sS'95765'
p605
S'Placer'
p606
sS'95762'
p607
S'El Dorado'
p608
sS'95763'
p609
S'Sacramento'
p610
sS'96049'
p611
S'Shasta'
p612
sS'96120'
p613
S'Alpine'
p614
sS'94552'
p615
S'ALAMEDA'
p616
sS'94553'
p617
S'CONTRA COSTA'
p618
sS'94550'
p619
S'ALAMEDA'
p620
sS'94551'
p621
S'ALAMEDA'
p622
sS'94556'
p623
S'CONTRA COSTA'
p624
sS'91077'
p625
S'LOS ANGELES'
p626
sS'94555'
p627
S'ALAMEDA'
p628
sS'94558'
p629
S'NAPA'
p630
sS'94559'
p631
S'NAPA'
p632
sS'94820'
p633
S'CONTRA COSTA'
p634
sS'92411'
p635
S'SAN BERNARDINO'
p636
sS'92410'
p637
S'SAN BERNARDINO'
p638
sS'92413'
p639
S'SAN BERNARDINO'
p640
sS'95372'
p641
S'Tuolumne'
p642
sS'92415'
p643
S'SAN BERNARDINO'
p644
sS'95374'
p645
S'Merced'
p646
sS'95377'
p647
S'San Joaquin'
p648
sS'95376'
p649
S'San Joaquin'
p650
sS'95379'
p651
S'Tuolumne'
p652
sS'92418'
p653
S'SAN BERNARDINO'
p654
sS'96125'
p655
S'Sierra'
p656
sS'96124'
p657
S'Sierra'
p658
sS'96127'
p659
S'Lassen'
p660
sS'96126'
p661
S'Sierra'
p662
sS'94956'
p663
S'MARIN'
p664
sS'94957'
p665
S'MARIN'
p666
sS'94954'
p667
S'SONOMA'
p668
sS'94955'
p669
S'SONOMA'
p670
sS'94952'
p671
S'SONOMA'
p672
sS'94953'
p673
S'SONOMA'
p674
sS'91470'
p675
S'LOS ANGELES'
p676
sS'94951'
p677
S'SONOMA'
p678
sS'96062'
p679
S'Shasta'
p680
sS'96123'
p681
S'Lassen'
p682
sS'96122'
p683
S'Plumas'
p684
sS'92350'
p685
S'SAN BERNARDINO'
p686
sS'93778'
p687
S'FRESNO'
p688
sS'92356'
p689
S'SAN BERNARDINO'
p690
sS'92605'
p691
S'ORANGE'
p692
sS'95209'
p693
S'SAN JOAQUIN'
p694
sS'92606'
p695
S'ORANGE'
p696
sS'92259'
p697
S'IMPERIAL'
p698
sS'92258'
p699
S'RIVERSIDE'
p700
sS'92257'
p701
S'IMPERIAL'
p702
sS'92256'
p703
S'SAN BERNARDINO'
p704
sS'92255'
p705
S'RIVERSIDE'
p706
sS'92254'
p707
S'RIVERSIDE'
p708
sS'92521'
p709
S'RIVERSIDE'
p710
sS'92252'
p711
S'SAN BERNARDINO'
p712
sS'92251'
p713
S'IMPERIAL'
p714
sS'92522'
p715
S'RIVERSIDE'
p716
sS'93772'
p717
S'FRESNO'
p718
sS'91210'
p719
S'LOS ANGELES'
p720
sS'93771'
p721
S'FRESNO'
p722
sS'91214'
p723
S'LOS ANGELES'
p724
sS'95991'
p725
S'Sutter'
p726
sS'95993'
p727
S'Sutter'
p728
sS'95992'
p729
S'Sutter'
p730
sS'96080'
p731
S'Tehama'
p732
sS'96129'
p733
S'Plumas'
p734
sS'96086'
p735
S'Siskiyou'
p736
sS'96087'
p737
S'Shasta'
p738
sS'96084'
p739
S'Shasta'
p740
sS'94566'
p741
S'ALAMEDA'
p742
sS'96088'
p743
S'Shasta'
p744
sS'96089'
p745
S'Shasta'
p746
sS'92018'
p747
S'SAN DIEGO'
p748
sS'93232'
p749
S'KINGS'
p750
sS'93230'
p751
S'KINGS'
p752
sS'93237'
p753
S'TULARE'
p754
sS'93234'
p755
S'FRESNO'
p756
sS'93235'
p757
S'TULARE'
p758
sS'94563'
p759
S'CONTRA COSTA'
p760
sS'93238'
p761
S'KERN'
p762
sS'93239'
p763
S'KINGS'
p764
sS'94562'
p765
S'NAPA'
p766
sS'91506'
p767
S'LOS ANGELES'
p768
sS'91507'
p769
S'LOS ANGELES'
p770
sS'92329'
p771
S'SAN BERNARDINO'
p772
sS'92328'
p773
S'INYO'
p774
sS'91502'
p775
S'LOS ANGELES'
p776
sS'91503'
p777
S'LOS ANGELES'
p778
sS'91501'
p779
S'LOS ANGELES'
p780
sS'92323'
p781
S'SAN BERNARDINO'
p782
sS'92630'
p783
S'ORANGE'
p784
sS'92321'
p785
S'SAN BERNARDINO'
p786
sS'92320'
p787
S'RIVERSIDE'
p788
sS'92327'
p789
S'SAN BERNARDINO'
p790
sS'92325'
p791
S'SAN BERNARDINO'
p792
sS'92324'
p793
S'SAN BERNARDINO'
p794
sS'94229'
p795
S'SACRAMENTO'
p796
sS'95930'
p797
S'Butte'
p798
sS'95559'
p799
S'Humboldt'
p800
sS'93120'
p801
S'SANTA BARBARA'
p802
sS'93121'
p803
S'SANTA BARBARA'
p804
sS'90804'
p805
S'LOS ANGELES'
p806
sS'90805'
p807
S'LOS ANGELES'
p808
sS'90806'
p809
S'LOS ANGELES'
p810
sS'90807'
p811
S'LOS ANGELES'
p812
sS'90801'
p813
S'LOS ANGELES'
p814
sS'90802'
p815
S'LOS ANGELES'
p816
sS'90803'
p817
S'LOS ANGELES'
p818
sS'90808'
p819
S'LOS ANGELES'
p820
sS'90809'
p821
S'LOS ANGELES'
p822
sS'93844'
p823
S'FRESNO'
p824
sS'95553'
p825
S'Humboldt'
p826
sS'94002'
p827
S'SAN MATEO'
p828
sS'93908'
p829
S'MONTEREY'
p830
sS'94005'
p831
S'SAN MATEO'
p832
sS'95573'
p833
S'Humboldt'
p834
sS'93905'
p835
S'MONTEREY'
p836
sS'93906'
p837
S'MONTEREY'
p838
sS'93907'
p839
S'MONTEREY'
p840
sS'93901'
p841
S'MONTEREY'
p842
sS'93902'
p843
S'MONTEREY'
p844
sS'90242'
p845
S'LOS ANGELES'
p846
sS'90240'
p847
S'LOS ANGELES'
p848
sS'90241'
p849
S'LOS ANGELES'
p850
sS'90247'
p851
S'LOS ANGELES'
p852
sS'90245'
p853
S'LOS ANGELES'
p854
sS'90248'
p855
S'LOS ANGELES'
p856
sS'90249'
p857
S'LOS ANGELES'
p858
sS'95681'
p859
S'Placer'
p860
sS'95680'
p861
S'Sacramento'
p862
sS'90068'
p863
S'LOS ANGELES'
p864
sS'90069'
p865
S'LOS ANGELES'
p866
sS'95685'
p867
S'Amador'
p868
sS'95684'
p869
S'El Dorado'
p870
sS'95687'
p871
S'Solano'
p872
sS'95686'
p873
S'San Joaquin'
p874
sS'90062'
p875
S'LOS ANGELES'
p876
sS'90063'
p877
S'LOS ANGELES'
p878
sS'90060'
p879
S'LOS ANGELES'
p880
sS'90061'
p881
S'LOS ANGELES'
p882
sS'90066'
p883
S'LOS ANGELES'
p884
sS'90067'
p885
S'LOS ANGELES'
p886
sS'90064'
p887
S'LOS ANGELES'
p888
sS'90065'
p889
S'LOS ANGELES'
p890
sS'94177'
p891
S'SAN FRANCISCO'
p892
sS'94172'
p893
S'SAN FRANCISCO'
p894
sS'90660'
p895
S'LOS ANGELES'
p896
sS'90661'
p897
S'LOS ANGELES'
p898
sS'90662'
p899
S'LOS ANGELES'
p900
sS'95194'
p901
S'SANTA CLARA'
p902
sS'95570'
p903
S'Humboldt'
p904
sS'95196'
p905
S'SANTA CLARA'
p906
sS'95191'
p907
S'SANTA CLARA'
p908
sS'95190'
p909
S'SANTA CLARA'
p910
sS'95193'
p911
S'SANTA CLARA'
p912
sS'95192'
p913
S'SANTA CLARA'
p914
sS'95757'
p915
S'Sacramento'
p916
sS'92403'
p917
S'SAN BERNARDINO'
p918
sS'95759'
p919
S'Sacramento'
p920
sS'95758'
p921
S'Sacramento'
p922
sS'95361'
p923
S'Stanislaus'
p924
sS'95234'
p925
S'SAN JOAQUIN'
p926
sS'95367'
p927
S'Stanislaus'
p928
sS'95364'
p929
S'Tuolumne'
p930
sS'95365'
p931
S'Merced'
p932
sS'94569'
p933
S'CONTRA COSTA'
p934
sS'94568'
p935
S'ALAMEDA'
p936
sS'94567'
p937
S'NAPA'
p938
sS'91046'
p939
S'LOS ANGELES'
p940
sS'94565'
p941
S'CONTRA COSTA'
p942
sS'94564'
p943
S'CONTRA COSTA'
p944
sS'91043'
p945
S'LOS ANGELES'
p946
sS'91042'
p947
S'LOS ANGELES'
p948
sS'91041'
p949
S'LOS ANGELES'
p950
sS'91040'
p951
S'LOS ANGELES'
p952
sS'92674'
p953
S'ORANGE'
p954
sS'92857'
p955
S'ORANGE'
p956
sS'92672'
p957
S'ORANGE'
p958
sS'92402'
p959
S'SAN BERNARDINO'
p960
sS'93276'
p961
S'KERN'
p962
sS'95360'
p963
S'Stanislaus'
p964
sS'92401'
p965
S'SAN BERNARDINO'
p966
sS'92406'
p967
S'SAN BERNARDINO'
p968
sS'92407'
p969
S'SAN BERNARDINO'
p970
sS'92404'
p971
S'SAN BERNARDINO'
p972
sS'92405'
p973
S'SAN BERNARDINO'
p974
sS'92408'
p975
S'SAN BERNARDINO'
p976
sS'95369'
p977
S'Merced'
p978
sS'92679'
p979
S'ORANGE'
p980
sS'91199'
p981
S'LOS ANGELES'
p982
sS'94963'
p983
S'MARIN'
p984
sS'94960'
p985
S'MARIN'
p986
sS'94966'
p987
S'MARIN'
p988
sS'94965'
p989
S'MARIN'
p990
sS'94964'
p991
S'MARIN'
p992
sS'92248'
p993
S'RIVERSIDE'
p994
sS'91226'
p995
S'LOS ANGELES'
p996
sS'91225'
p997
S'LOS ANGELES'
p998
sS'91224'
p999
S'LOS ANGELES'
p1000
sS'95825'
p1001
S'Sacramento'
p1002
sS'91222'
p1003
S'LOS ANGELES'
p1004
sS'91221'
p1005
S'LOS ANGELES'
p1006
sS'92539'
p1007
S'RIVERSIDE'
p1008
sS'92536'
p1009
S'RIVERSIDE'
p1010
sS'92241'
p1011
S'RIVERSIDE'
p1012
sS'92242'
p1013
S'SAN BERNARDINO'
p1014
sS'92243'
p1015
S'IMPERIAL'
p1016
sS'92532'
p1017
S'RIVERSIDE'
p1018
sS'95213'
p1019
S'SAN JOAQUIN'
p1020
sS'92530'
p1021
S'RIVERSIDE'
p1022
sS'92531'
p1023
S'RIVERSIDE'
p1024
sS'94585'
p1025
S'SOLANO'
p1026
sS'94587'
p1027
S'ALAMEDA'
p1028
sS'94586'
p1029
S'ALAMEDA'
p1030
sS'94581'
p1031
S'NAPA'
p1032
sS'94580'
p1033
S'ALAMEDA'
p1034
sS'94583'
p1035
S'CONTRA COSTA'
p1036
sS'94582'
p1037
S'CONTRA COSTA'
p1038
sS'94589'
p1039
S'SOLANO'
p1040
sS'94588'
p1041
S'ALAMEDA'
p1042
sS'95986'
p1043
S'Nevada'
p1044
sS'95987'
p1045
S'Colusa'
p1046
sS'95984'
p1047
S'Plumas'
p1048
sS'95982'
p1049
S'Sutter'
p1050
sS'95983'
p1051
S'Plumas'
p1052
sS'95980'
p1053
S'Plumas'
p1054
sS'95981'
p1055
S'Plumas'
p1056
sS'95988'
p1057
S'Glenn'
p1058
sS'93599'
p1059
S'LOS ANGELES'
p1060
sS'93596'
p1061
S'KERN'
p1062
sS'94521'
p1063
S'CONTRA COSTA'
p1064
sS'93592'
p1065
S'SAN BERNARDINO'
p1066
sS'93591'
p1067
S'LOS ANGELES'
p1068
sS'93590'
p1069
S'LOS ANGELES'
p1070
sS'92334'
p1071
S'SAN BERNARDINO'
p1072
sS'92335'
p1073
S'SAN BERNARDINO'
p1074
sS'92336'
p1075
S'SAN BERNARDINO'
p1076
sS'92337'
p1077
S'SAN BERNARDINO'
p1078
sS'92331'
p1079
S'SAN BERNARDINO'
p1080
sS'92332'
p1081
S'SAN BERNARDINO'
p1082
sS'93208'
p1083
S'TULARE'
p1084
sS'93207'
p1085
S'TULARE'
p1086
sS'93206'
p1087
S'KERN'
p1088
sS'93205'
p1089
S'KERN'
p1090
sS'93204'
p1091
S'KINGS'
p1092
sS'93203'
p1093
S'KERN'
p1094
sS'93202'
p1095
S'KINGS'
p1096
sS'93201'
p1097
S'TULARE'
p1098
sS'90732'
p1099
S'LOS ANGELES'
p1100
sS'92628'
p1101
S'ORANGE'
p1102
sS'92629'
p1103
S'ORANGE'
p1104
sS'92623'
p1105
S'ORANGE'
p1106
sS'92620'
p1107
S'ORANGE'
p1108
sS'92626'
p1109
S'ORANGE'
p1110
sS'92627'
p1111
S'ORANGE'
p1112
sS'92624'
p1113
S'ORANGE'
p1114
sS'92625'
p1115
S'ORANGE'
p1116
sS'95236'
p1117
S'SAN JOAQUIN'
p1118
sS'93118'
p1119
S'SANTA BARBARA'
p1120
sS'93111'
p1121
S'SANTA BARBARA'
p1122
sS'93110'
p1123
S'SANTA BARBARA'
p1124
sS'93117'
p1125
S'SANTA BARBARA'
p1126
sS'93116'
p1127
S'SANTA BARBARA'
p1128
sS'90731'
p1129
S'LOS ANGELES'
p1130
sS'94950'
p1131
S'MARIN'
p1132
sS'96055'
p1133
S'Tehama'
p1134
sS'96054'
p1135
S'Modoc'
p1136
sS'96057'
p1137
S'Siskiyou'
p1138
sS'96056'
p1139
S'Lassen'
p1140
sS'96051'
p1141
S'Shasta'
p1142
sS'96050'
p1143
S'Siskiyou'
p1144
sS'96052'
p1145
S'Trinity'
p1146
sS'90094'
p1147
S'LOS ANGELES'
p1148
sS'96059'
p1149
S'Tehama'
p1150
sS'96058'
p1151
S'Siskiyou'
p1152
sS'95564'
p1153
S'Humboldt'
p1154
sS'95565'
p1155
S'Humboldt'
p1156
sS'95567'
p1157
S'Del Norte'
p1158
sS'95560'
p1159
S'Humboldt'
p1160
sS'95562'
p1161
S'Humboldt'
p1162
sS'95563'
p1163
S'Humboldt'
p1164
sS'95431'
p1165
S'Sonoma'
p1166
sS'95568'
p1167
S'Siskiyou'
p1168
sS'95569'
p1169
S'Humboldt'
p1170
sS'96073'
p1171
S'Shasta'
p1172
sS'90278'
p1173
S'LOS ANGELES'
p1174
sS'90277'
p1175
S'LOS ANGELES'
p1176
sS'90275'
p1177
S'LOS ANGELES'
p1178
sS'90274'
p1179
S'LOS ANGELES'
p1180
sS'90272'
p1181
S'LOS ANGELES'
p1182
sS'90270'
p1183
S'LOS ANGELES'
p1184
sS'95548'
p1185
S'Del Norte'
p1186
sS'96070'
p1187
S'Shasta'
p1188
sS'96148'
p1189
S'Placer'
p1190
sS'96117'
p1191
S'Lassen'
p1192
sS'96076'
p1193
S'Shasta'
p1194
sS'90295'
p1195
S'LOS ANGELES'
p1196
sS'90294'
p1197
S'LOS ANGELES'
p1198
sS'95690'
p1199
S'Sacramento'
p1200
sS'90296'
p1201
S'LOS ANGELES'
p1202
sS'90291'
p1203
S'LOS ANGELES'
p1204
sS'90290'
p1205
S'LOS ANGELES'
p1206
sS'90293'
p1207
S'LOS ANGELES'
p1208
sS'92249'
p1209
S'IMPERIAL'
p1210
sS'95698'
p1211
S'Yolo'
p1212
sS'95699'
p1213
S'Amador'
p1214
sS'96079'
p1215
S'Shasta'
p1216
sS'94109'
p1217
S'SAN FRANCISCO'
p1218
sS'94108'
p1219
S'SAN FRANCISCO'
p1220
sS'93006'
p1221
S'VENTURA'
p1222
sS'96075'
p1223
S'Tehama'
p1224
sS'94103'
p1225
S'SAN FRANCISCO'
p1226
sS'94102'
p1227
S'SAN FRANCISCO'
p1228
sS'94105'
p1229
S'SAN FRANCISCO'
p1230
sS'94104'
p1231
S'SAN FRANCISCO'
p1232
sS'94107'
p1233
S'SAN FRANCISCO'
p1234
sS'92240'
p1235
S'RIVERSIDE'
p1236
sS'95961'
p1237
S'Yuba'
p1238
sS'90610'
p1239
S'LOS ANGELES'
p1240
sS'95962'
p1241
S'Yuba'
p1242
sS'95215'
p1243
S'SAN JOAQUIN'
p1244
sS'92244'
p1245
S'IMPERIAL'
p1246
sS'95965'
p1247
S'Butte'
p1248
sS'95501'
p1249
S'Humboldt'
p1250
sS'95210'
p1251
S'SAN JOAQUIN'
p1252
sS'92247'
p1253
S'RIVERSIDE'
p1254
sS'94615'
p1255
S'ALAMEDA'
p1256
sS'94614'
p1257
S'ALAMEDA'
p1258
sS'94617'
p1259
S'ALAMEDA'
p1260
sS'94611'
p1261
S'ALAMEDA'
p1262
sS'94610'
p1263
S'ALAMEDA'
p1264
sS'94613'
p1265
S'ALAMEDA'
p1266
sS'94612'
p1267
S'ALAMEDA'
p1268
sS'95746'
p1269
S'Placer'
p1270
sS'95747'
p1271
S'Placer'
p1272
sS'94619'
p1273
S'ALAMEDA'
p1274
sS'94618'
p1275
S'ALAMEDA'
p1276
sS'95742'
p1277
S'Sacramento'
p1278
sS'90057'
p1279
S'LOS ANGELES'
p1280
sS'90056'
p1281
S'LOS ANGELES'
p1282
sS'90055'
p1283
S'LOS ANGELES'
p1284
sS'90054'
p1285
S'LOS ANGELES'
p1286
sS'90053'
p1287
S'LOS ANGELES'
p1288
sS'90720'
p1289
S'ORANGE'
p1290
sS'90051'
p1291
S'LOS ANGELES'
p1292
sS'90050'
p1293
S'LOS ANGELES'
p1294
sS'90059'
p1295
S'LOS ANGELES'
p1296
sS'90058'
p1297
S'LOS ANGELES'
p1298
sS'94578'
p1299
S'ALAMEDA'
p1300
sS'91344'
p1301
S'LOS ANGELES'
p1302
sS'91345'
p1303
S'LOS ANGELES'
p1304
sS'94570'
p1305
S'CONTRA COSTA'
p1306
sS'94571'
p1307
S'SOLANO'
p1308
sS'94572'
p1309
S'CONTRA COSTA'
p1310
sS'94573'
p1311
S'NAPA'
p1312
sS'94574'
p1313
S'NAPA'
p1314
sS'91614'
p1315
S'LOS ANGELES'
p1316
sS'94576'
p1317
S'NAPA'
p1318
sS'94577'
p1319
S'ALAMEDA'
p1320
sS'94808'
p1321
S'CONTRA COSTA'
p1322
sS'91340'
p1323
S'LOS ANGELES'
p1324
sS'94802'
p1325
S'CONTRA COSTA'
p1326
sS'94803'
p1327
S'CONTRA COSTA'
p1328
sS'94804'
p1329
S'CONTRA COSTA'
p1330
sS'94805'
p1331
S'CONTRA COSTA'
p1332
sS'94806'
p1333
S'CONTRA COSTA'
p1334
sS'94807'
p1335
S'CONTRA COSTA'
p1336
sS'91342'
p1337
S'LOS ANGELES'
p1338
sS'91611'
p1339
S'LOS ANGELES'
p1340
sS'95828'
p1341
S'Sacramento'
p1342
sS'95358'
p1343
S'Stanislaus'
p1344
sS'95357'
p1345
S'Stanislaus'
p1346
sS'95356'
p1347
S'Stanislaus'
p1348
sS'95355'
p1349
S'Stanislaus'
p1350
sS'95354'
p1351
S'Stanislaus'
p1352
sS'95353'
p1353
S'Stanislaus'
p1354
sS'95352'
p1355
S'Stanislaus'
p1356
sS'95351'
p1357
S'Stanislaus'
p1358
sS'95350'
p1359
S'Stanislaus'
p1360
sS'94974'
p1361
S'MARIN'
p1362
sS'94975'
p1363
S'SONOMA'
p1364
sS'94976'
p1365
S'MARIN'
p1366
sS'94977'
p1367
S'MARIN'
p1368
sS'94970'
p1369
S'MARIN'
p1370
sS'94971'
p1371
S'MARIN'
p1372
sS'94972'
p1373
S'SONOMA'
p1374
sS'94973'
p1375
S'MARIN'
p1376
sS'94978'
p1377
S'MARIN'
p1378
sS'94979'
p1379
S'MARIN'
p1380
sS'95821'
p1381
S'Sacramento'
p1382
sS'91188'
p1383
S'LOS ANGELES'
p1384
sS'91189'
p1385
S'LOS ANGELES'
p1386
sS'95820'
p1387
S'Sacramento'
p1388
sS'91182'
p1389
S'LOS ANGELES'
p1390
sS'95823'
p1391
S'Sacramento'
p1392
sS'91184'
p1393
S'LOS ANGELES'
p1394
sS'91185'
p1395
S'LOS ANGELES'
p1396
sS'95229'
p1397
S'CALAVERAS'
p1398
sS'95824'
p1399
S'Sacramento'
p1400
sS'95827'
p1401
S'Sacramento'
p1402
sS'95826'
p1403
S'Sacramento'
p1404
sS'91980'
p1405
S'SAN DIEGO'
p1406
sS'92508'
p1407
S'RIVERSIDE'
p1408
sS'91987'
p1409
S'SAN DIEGO'
p1410
sS'92503'
p1411
S'RIVERSIDE'
p1412
sS'92502'
p1413
S'RIVERSIDE'
p1414
sS'92501'
p1415
S'RIVERSIDE'
p1416
sS'95220'
p1417
S'SAN JOAQUIN'
p1418
sS'92507'
p1419
S'RIVERSIDE'
p1420
sS'92506'
p1421
S'RIVERSIDE'
p1422
sS'92505'
p1423
S'RIVERSIDE'
p1424
sS'92504'
p1425
S'RIVERSIDE'
p1426
sS'94596'
p1427
S'CONTRA COSTA'
p1428
sS'94597'
p1429
S'CONTRA COSTA'
p1430
sS'94595'
p1431
S'CONTRA COSTA'
p1432
sS'94592'
p1433
S'SOLANO'
p1434
sS'95903'
p1435
S'Yuba'
p1436
sS'94590'
p1437
S'SOLANO'
p1438
sS'94591'
p1439
S'SOLANO'
p1440
sS'94598'
p1441
S'CONTRA COSTA'
p1442
sS'94599'
p1443
S'NAPA'
p1444
sS'93581'
p1445
S'KERN'
p1446
sS'93584'
p1447
S'LOS ANGELES'
p1448
sS'93586'
p1449
S'LOS ANGELES'
p1450
sS'92341'
p1451
S'SAN BERNARDINO'
p1452
sS'93219'
p1453
S'TULARE'
p1454
sS'92615'
p1455
S'ORANGE'
p1456
sS'92342'
p1457
S'SAN BERNARDINO'
p1458
sS'92345'
p1459
S'SAN BERNARDINO'
p1460
sS'92344'
p1461
S'SAN BERNARDINO'
p1462
sS'92347'
p1463
S'SAN BERNARDINO'
p1464
sS'92346'
p1465
S'SAN BERNARDINO'
p1466
sS'93210'
p1467
S'FRESNO'
p1468
sS'93747'
p1469
S'FRESNO'
p1470
sS'93212'
p1471
S'KINGS'
p1472
sS'93745'
p1473
S'FRESNO'
p1474
sS'93215'
p1475
S'KERN'
p1476
sS'92619'
p1477
S'ORANGE'
p1478
sS'92618'
p1479
S'ORANGE'
p1480
sS'92187'
p1481
S'SAN DIEGO'
p1482
sS'92186'
p1483
S'SAN DIEGO'
p1484
sS'92182'
p1485
S'SAN DIEGO'
p1486
sS'91526'
p1487
S'LOS ANGELES'
p1488
sS'91521'
p1489
S'LOS ANGELES'
p1490
sS'91522'
p1491
S'LOS ANGELES'
p1492
sS'91523'
p1493
S'LOS ANGELES'
p1494
sS'93105'
p1495
S'SANTA BARBARA'
p1496
sS'93106'
p1497
S'SANTA BARBARA'
p1498
sS'93107'
p1499
S'SANTA BARBARA'
p1500
sS'93101'
p1501
S'SANTA BARBARA'
p1502
sS'93102'
p1503
S'SANTA BARBARA'
p1504
sS'93103'
p1505
S'SANTA BARBARA'
p1506
sS'92333'
p1507
S'SAN BERNARDINO'
p1508
sS'93108'
p1509
S'SANTA BARBARA'
p1510
sS'93109'
p1511
S'SANTA BARBARA'
p1512
sS'93755'
p1513
S'FRESNO'
p1514
sS'94544'
p1515
S'ALAMEDA'
p1516
sS'96121'
p1517
S'Plumas'
p1518
sS'92338'
p1519
S'SAN BERNARDINO'
p1520
sS'94546'
p1521
S'ALAMEDA'
p1522
sS'92339'
p1523
S'SAN BERNARDINO'
p1524
sS'95010'
p1525
S'SANTA CRUZ'
p1526
sS'95011'
p1527
S'SANTA CLARA'
p1528
sS'95013'
p1529
S'SANTA CLARA'
p1530
sS'96046'
p1531
S'Trinity'
p1532
sS'96047'
p1533
S'Shasta'
p1534
sS'96044'
p1535
S'Siskiyou'
p1536
sS'93562'
p1537
S'SAN BERNARDINO'
p1538
sS'93563'
p1539
S'LOS ANGELES'
p1540
sS'93560'
p1541
S'KERN'
p1542
sS'93561'
p1543
S'KERN'
p1544
sS'92239'
p1545
S'RIVERSIDE'
p1546
sS'96048'
p1547
S'Trinity'
p1548
sS'95918'
p1549
S'Yuba'
p1550
sS'95511'
p1551
S'Humboldt'
p1552
sS'94510'
p1553
S'SOLANO'
p1554
sS'95514'
p1555
S'Humboldt'
p1556
sS'95519'
p1557
S'Humboldt'
p1558
sS'95518'
p1559
S'Humboldt'
p1560
sS'95915'
p1561
S'Plumas'
p1562
sS'95914'
p1563
S'Butte'
p1564
sS'93962'
p1565
S'MONTEREY'
p1566
sS'93960'
p1567
S'MONTEREY'
p1568
sS'95917'
p1569
S'Butte'
p1570
sS'94511'
p1571
S'CONTRA COSTA'
p1572
sS'95916'
p1573
S'Butte'
p1574
sS'90260'
p1575
S'LOS ANGELES'
p1576
sS'90261'
p1577
S'LOS ANGELES'
p1578
sS'90262'
p1579
S'LOS ANGELES'
p1580
sS'90263'
p1581
S'LOS ANGELES'
p1582
sS'90264'
p1583
S'LOS ANGELES'
p1584
sS'90265'
p1585
S'LOS ANGELES'
p1586
sS'90266'
p1587
S'LOS ANGELES'
p1588
sS'90267'
p1589
S'LOS ANGELES'
p1590
sS'94930'
p1591
S'MARIN'
p1592
sS'95913'
p1593
S'Glenn'
p1594
sS'94931'
p1595
S'SONOMA'
p1596
sS'95912'
p1597
S'Colusa'
p1598
sS'95558'
p1599
S'Humboldt'
p1600
sS'94933'
p1601
S'MARIN'
p1602
sS'90280'
p1603
S'LOS ANGELES'
p1604
sS'95439'
p1605
S'Sonoma'
p1606
sS'95233'
p1607
S'CALAVERAS'
p1608
sS'95429'
p1609
S'Mendocino'
p1610
sS'95428'
p1611
S'Mendocino'
p1612
sS'95425'
p1613
S'Sonoma'
p1614
sS'95424'
p1615
S'Lake'
p1616
sS'95427'
p1617
S'Mendocino'
p1618
sS'95426'
p1619
S'Lake'
p1620
sS'95421'
p1621
S'Sonoma'
p1622
sS'95420'
p1623
S'Mendocino'
p1624
sS'95423'
p1625
S'Lake'
p1626
sS'95422'
p1627
S'Lake'
p1628
sS'94118'
p1629
S'SAN FRANCISCO'
p1630
sS'94119'
p1631
S'SAN FRANCISCO'
p1632
sS'94112'
p1633
S'SAN FRANCISCO'
p1634
sS'94110'
p1635
S'SAN FRANCISCO'
p1636
sS'94111'
p1637
S'SAN FRANCISCO'
p1638
sS'94116'
p1639
S'SAN FRANCISCO'
p1640
sS'94117'
p1641
S'SAN FRANCISCO'
p1642
sS'94114'
p1643
S'SAN FRANCISCO'
p1644
sS'93258'
p1645
S'TULARE'
p1646
sS'90608'
p1647
S'LOS ANGELES'
p1648
sS'90609'
p1649
S'LOS ANGELES'
p1650
sS'95430'
p1651
S'Sonoma'
p1652
sS'90602'
p1653
S'LOS ANGELES'
p1654
sS'90603'
p1655
S'LOS ANGELES'
p1656
sS'90601'
p1657
S'LOS ANGELES'
p1658
sS'90606'
p1659
S'LOS ANGELES'
p1660
sS'90607'
p1661
S'LOS ANGELES'
p1662
sS'90604'
p1663
S'LOS ANGELES'
p1664
sS'90605'
p1665
S'LOS ANGELES'
p1666
sS'95919'
p1667
S'Yuba'
p1668
sS'94606'
p1669
S'ALAMEDA'
p1670
sS'94607'
p1671
S'ALAMEDA'
p1672
sS'94604'
p1673
S'ALAMEDA'
p1674
sS'94605'
p1675
S'ALAMEDA'
p1676
sS'94602'
p1677
S'ALAMEDA'
p1678
sS'94603'
p1679
S'ALAMEDA'
p1680
sS'94601'
p1681
S'ALAMEDA'
p1682
sS'95735'
p1683
S'El Dorado'
p1684
sS'94608'
p1685
S'ALAMEDA'
p1686
sS'94609'
p1687
S'ALAMEDA'
p1688
sS'90040'
p1689
S'LOS ANGELES'
p1690
sS'90041'
p1691
S'LOS ANGELES'
p1692
sS'90042'
p1693
S'LOS ANGELES'
p1694
sS'90043'
p1695
S'LOS ANGELES'
p1696
sS'90044'
p1697
S'LOS ANGELES'
p1698
sS'90045'
p1699
S'LOS ANGELES'
p1700
sS'90046'
p1701
S'LOS ANGELES'
p1702
sS'90047'
p1703
S'LOS ANGELES'
p1704
sS'90048'
p1705
S'LOS ANGELES'
p1706
sS'90049'
p1707
S'LOS ANGELES'
p1708
sS'95645'
p1709
S'Sutter'
p1710
sS'95644'
p1711
S'El Dorado'
p1712
sS'95646'
p1713
S'Amador'
p1714
sS'95641'
p1715
S'Sacramento'
p1716
sS'95640'
p1717
S'Amador'
p1718
sS'95642'
p1719
S'Amador'
p1720
sS'95648'
p1721
S'Placer'
p1722
sS'95313'
p1723
S'Stanislaus'
p1724
sS'96021'
p1725
S'Tehama'
p1726
sS'96022'
p1727
S'Tehama'
p1728
sS'95348'
p1729
S'Merced'
p1730
sS'95312'
p1731
S'Merced'
p1732
sS'95340'
p1733
S'Merced'
p1734
sS'95341'
p1735
S'Merced'
p1736
sS'92423'
p1737
S'SAN BERNARDINO'
p1738
sS'95344'
p1739
S'Merced'
p1740
sS'95345'
p1741
S'Mariposa'
p1742
sS'95346'
p1743
S'Tuolumne'
p1744
sS'92427'
p1745
S'SAN BERNARDINO'
p1746
sS'94901'
p1747
S'MARIN'
p1748
sS'91423'
p1749
S'LOS ANGELES'
p1750
sS'94904'
p1751
S'MARIN'
p1752
sS'91426'
p1753
S'LOS ANGELES'
p1754
sS'95269'
p1755
S'San Joaquin'
p1756
sS'92514'
p1757
S'RIVERSIDE'
p1758
sS'92515'
p1759
S'RIVERSIDE'
p1760
sS'92516'
p1761
S'RIVERSIDE'
p1762
sS'92517'
p1763
S'RIVERSIDE'
p1764
sS'95230'
p1765
S'SAN JOAQUIN'
p1766
sS'95231'
p1767
S'SAN JOAQUIN'
p1768
sS'95232'
p1769
S'CALAVERAS'
p1770
sS'92513'
p1771
S'RIVERSIDE'
p1772
sS'92518'
p1773
S'RIVERSIDE'
p1774
sS'92519'
p1775
S'RIVERSIDE'
p1776
sS'92059'
p1777
S'SAN DIEGO'
p1778
sS'92058'
p1779
S'SAN DIEGO'
p1780
sS'91739'
p1781
S'SAN BERNARDINO'
p1782
sS'91735'
p1783
S'LOS ANGELES'
p1784
sS'91734'
p1785
S'LOS ANGELES'
p1786
sS'91737'
p1787
S'SAN BERNARDINO'
p1788
sS'91731'
p1789
S'LOS ANGELES'
p1790
sS'91730'
p1791
S'SAN BERNARDINO'
p1792
sS'91733'
p1793
S'LOS ANGELES'
p1794
sS'91732'
p1795
S'LOS ANGELES'
p1796
sS'91951'
p1797
S'SAN DIEGO'
p1798
sS'91950'
p1799
S'SAN DIEGO'
p1800
sS'92284'
p1801
S'SAN BERNARDINO'
p1802
sS'92285'
p1803
S'SAN BERNARDINO'
p1804
sS'92286'
p1805
S'SAN BERNARDINO'
p1806
sS'92280'
p1807
S'SAN BERNARDINO'
p1808
sS'92281'
p1809
S'IMPERIAL'
p1810
sS'92282'
p1811
S'RIVERSIDE'
p1812
sS'92283'
p1813
S'IMPERIAL'
p1814
sS'95812'
p1815
S'Sacramento'
p1816
sS'92352'
p1817
S'SAN BERNARDINO'
p1818
sS'92602'
p1819
S'ORANGE'
p1820
sS'92603'
p1821
S'ORANGE'
p1822
sS'92604'
p1823
S'ORANGE'
p1824
sS'92314'
p1825
S'SAN BERNARDINO'
p1826
sS'92354'
p1827
S'SAN BERNARDINO'
p1828
sS'92607'
p1829
S'ORANGE'
p1830
sS'93773'
p1831
S'FRESNO'
p1832
sS'92609'
p1833
S'ORANGE'
p1834
sS'92358'
p1835
S'SAN BERNARDINO'
p1836
sS'92359'
p1837
S'SAN BERNARDINO'
p1838
sS'93777'
p1839
S'FRESNO'
p1840
sS'93776'
p1841
S'FRESNO'
p1842
sS'93775'
p1843
S'FRESNO'
p1844
sS'93774'
p1845
S'FRESNO'
p1846
sS'92190'
p1847
S'SAN DIEGO'
p1848
sS'92191'
p1849
S'SAN DIEGO'
p1850
sS'92192'
p1851
S'SAN DIEGO'
p1852
sS'92193'
p1853
S'SAN DIEGO'
p1854
sS'92195'
p1855
S'SAN DIEGO'
p1856
sS'92196'
p1857
S'SAN DIEGO'
p1858
sS'92197'
p1859
S'SAN DIEGO'
p1860
sS'92198'
p1861
S'SAN DIEGO'
p1862
sS'92199'
p1863
S'SAN DIEGO'
p1864
sS'95061'
p1865
S'SANTA CRUZ'
p1866
sS'95814'
p1867
S'Sacramento'
p1868
sS'95060'
p1869
S'SANTA CRUZ'
p1870
sS'93483'
p1871
S'SAN LUIS OBISPO'
p1872
sS'94949'
p1873
S'MARIN'
p1874
sS'95816'
p1875
S'Sacramento'
p1876
sS'95219'
p1877
S'SAN JOAQUIN'
p1878
sS'90853'
p1879
S'LOS ANGELES'
p1880
sS'95817'
p1881
S'Sacramento'
p1882
sS'93390'
p1883
S'KERN'
p1884
sS'93553'
p1885
S'LOS ANGELES'
p1886
sS'93552'
p1887
S'LOS ANGELES'
p1888
sS'93551'
p1889
S'LOS ANGELES'
p1890
sS'93550'
p1891
S'LOS ANGELES'
p1892
sS'93009'
p1893
S'VENTURA'
p1894
sS'93556'
p1895
S'KERN'
p1896
sS'93555'
p1897
S'KERN'
p1898
sS'93554'
p1899
S'KERN'
p1900
sS'93005'
p1901
S'VENTURA'
p1902
sS'93004'
p1903
S'VENTURA'
p1904
sS'93007'
p1905
S'VENTURA'
p1906
sS'93558'
p1907
S'KERN'
p1908
sS'93001'
p1909
S'VENTURA'
p1910
sS'93003'
p1911
S'VENTURA'
p1912
sS'93002'
p1913
S'VENTURA'
p1914
sS'95502'
p1915
S'Humboldt'
p1916
sS'95503'
p1917
S'Humboldt'
p1918
sS'93955'
p1919
S'MONTEREY'
p1920
sS'93954'
p1921
S'MONTEREY'
p1922
sS'93953'
p1923
S'MONTEREY'
p1924
sS'95818'
p1925
S'Sacramento'
p1926
sS'93950'
p1927
S'MONTEREY'
p1928
sS'94249'
p1929
S'SACRAMENTO'
p1930
sS'94299'
p1931
S'SACRAMENTO'
p1932
sS'94298'
p1933
S'SACRAMENTO'
p1934
sS'95819'
p1935
S'Sacramento'
p1936
sS'95041'
p1937
S'SANTA CRUZ'
p1938
sS'94291'
p1939
S'SACRAMENTO'
p1940
sS'94290'
p1941
S'SACRAMENTO'
p1942
sS'94293'
p1943
S'SACRAMENTO'
p1944
sS'94295'
p1945
S'SACRAMENTO'
p1946
sS'94294'
p1947
S'SACRAMENTO'
p1948
sS'94297'
p1949
S'SACRAMENTO'
p1950
sS'94296'
p1951
S'SACRAMENTO'
p1952
sS'94502'
p1953
S'ALAMEDA'
p1954
sS'94127'
p1955
S'SAN FRANCISCO'
p1956
sS'94126'
p1957
S'SAN FRANCISCO'
p1958
sS'94125'
p1959
S'SAN FRANCISCO'
p1960
sS'94124'
p1961
S'SAN FRANCISCO'
p1962
sS'94123'
p1963
S'SAN FRANCISCO'
p1964
sS'94122'
p1965
S'SAN FRANCISCO'
p1966
sS'94121'
p1967
S'SAN FRANCISCO'
p1968
sS'94120'
p1969
S'SAN FRANCISCO'
p1970
sS'95436'
p1971
S'Sonoma'
p1972
sS'95437'
p1973
S'Mendocino'
p1974
sS'95435'
p1975
S'Lake'
p1976
sS'95432'
p1977
S'Mendocino'
p1978
sS'95433'
p1979
S'Sonoma'
p1980
sS'94129'
p1981
S'SAN FRANCISCO'
p1982
sS'94128'
p1983
S'SAN MATEO'
p1984
sS'90637'
p1985
S'LOS ANGELES'
p1986
sS'95212'
p1987
S'SAN JOAQUIN'
p1988
sS'90633'
p1989
S'ORANGE'
p1990
sS'90632'
p1991
S'ORANGE'
p1992
sS'90631'
p1993
S'ORANGE'
p1994
sS'90630'
p1995
S'ORANGE'
p1996
sS'90639'
p1997
S'LOS ANGELES'
p1998
sS'90638'
p1999
S'LOS ANGELES'
p2000
sS'90401'
p2001
S'LOS ANGELES'
p2002
sS'90407'
p2003
S'LOS ANGELES'
p2004
sS'95728'
p2005
S'Nevada'
p2006
sS'95722'
p2007
S'Placer'
p2008
sS'95720'
p2009
S'El Dorado'
p2010
sS'95721'
p2011
S'El Dorado'
p2012
sS'95726'
p2013
S'El Dorado'
p2014
sS'95724'
p2015
S'Placer'
p2016
sS'90703'
p2017
S'LOS ANGELES'
p2018
sS'90702'
p2019
S'LOS ANGELES'
p2020
sS'90701'
p2021
S'LOS ANGELES'
p2022
sS'90707'
p2023
S'LOS ANGELES'
p2024
sS'90706'
p2025
S'LOS ANGELES'
p2026
sS'90704'
p2027
S'LOS ANGELES'
p2028
sS'95211'
p2029
S'SAN JOAQUIN'
p2030
sS'96119'
p2031
S'Lassen'
p2032
sS'95942'
p2033
S'Butte'
p2034
sS'95943'
p2035
S'Glenn'
p2036
sS'95940'
p2037
S'Butte'
p2038
sS'95941'
p2039
S'Butte'
p2040
sS'96115'
p2041
S'Modoc'
p2042
sS'95946'
p2043
S'Nevada'
p2044
sS'95947'
p2045
S'Plumas'
p2046
sS'95656'
p2047
S'El Dorado'
p2048
sS'95654'
p2049
S'Amador'
p2050
sS'95655'
p2051
S'Sacramento'
p2052
sS'95652'
p2053
S'Sacramento'
p2054
sS'95653'
p2055
S'Yolo'
p2056
sS'95650'
p2057
S'Placer'
p2058
sS'95651'
p2059
S'El Dorado'
p2060
sS'95968'
p2061
S'Butte'
p2062
sS'95658'
p2063
S'Placer'
p2064
sS'95659'
p2065
S'Sutter'
p2066
sS'95948'
p2067
S'Butte'
p2068
sS'94912'
p2069
S'MARIN'
p2070
sS'94913'
p2071
S'MARIN'
p2072
sS'91436'
p2073
S'LOS ANGELES'
p2074
sS'94914'
p2075
S'MARIN'
p2076
sS'94915'
p2077
S'MARIN'
p2078
sS'92149'
p2079
S'SAN DIEGO'
p2080
sS'92561'
p2081
S'RIVERSIDE'
p2082
sS'95240'
p2083
S'SAN JOAQUIN'
p2084
sS'92563'
p2085
S'RIVERSIDE'
p2086
sS'92562'
p2087
S'RIVERSIDE'
p2088
sS'95245'
p2089
S'CALAVERAS'
p2090
sS'92564'
p2091
S'RIVERSIDE'
p2092
sS'92567'
p2093
S'RIVERSIDE'
p2094
sS'95246'
p2095
S'CALAVERAS'
p2096
sS'95249'
p2097
S'CALAVERAS'
p2098
sS'95248'
p2099
S'CALAVERAS'
p2100
sS'95324'
p2101
S'Merced'
p2102
sS'91729'
p2103
S'SAN BERNARDINO'
p2104
sS'91724'
p2105
S'LOS ANGELES'
p2106
sS'91722'
p2107
S'LOS ANGELES'
p2108
sS'91723'
p2109
S'LOS ANGELES'
p2110
sS'91946'
p2111
S'SAN DIEGO'
p2112
sS'91944'
p2113
S'SAN DIEGO'
p2114
sS'91945'
p2115
S'SAN DIEGO'
p2116
sS'91942'
p2117
S'SAN DIEGO'
p2118
sS'91943'
p2119
S'SAN DIEGO'
p2120
sS'91941'
p2121
S'SAN DIEGO'
p2122
sS'91948'
p2123
S'SAN DIEGO'
p2124
sS'93764'
p2125
S'FRESNO'
p2126
sS'93765'
p2127
S'FRESNO'
p2128
sS'93760'
p2129
S'FRESNO'
p2130
sS'93761'
p2131
S'FRESNO'
p2132
sS'91896'
p2133
S'LOS ANGELES'
p2134
sS'92369'
p2135
S'SAN BERNARDINO'
p2136
sS'92368'
p2137
S'SAN BERNARDINO'
p2138
sS'95887'
p2139
S'Sacramento'
p2140
sS'92366'
p2141
S'SAN BERNARDINO'
p2142
sS'92365'
p2143
S'SAN BERNARDINO'
p2144
sS'92364'
p2145
S'SAN BERNARDINO'
p2146
sS'92363'
p2147
S'SAN BERNARDINO'
p2148
sS'91899'
p2149
S'LOS ANGELES'
p2150
sS'95391'
p2151
S'San Joaquin'
p2152
sS'92169'
p2153
S'SAN DIEGO'
p2154
sS'92168'
p2155
S'SAN DIEGO'
p2156
sS'92165'
p2157
S'SAN DIEGO'
p2158
sS'92167'
p2159
S'SAN DIEGO'
p2160
sS'92166'
p2161
S'SAN DIEGO'
p2162
sS'92161'
p2163
S'SAN DIEGO'
p2164
sS'92160'
p2165
S'SAN DIEGO'
p2166
sS'92163'
p2167
S'SAN DIEGO'
p2168
sS'92385'
p2169
S'SAN BERNARDINO'
p2170
sS'92384'
p2171
S'INYO'
p2172
sS'95867'
p2173
S'Sacramento'
p2174
sS'92386'
p2175
S'SAN BERNARDINO'
p2176
sS'95860'
p2177
S'Sacramento'
p2178
sS'92382'
p2179
S'SAN BERNARDINO'
p2180
sS'92389'
p2181
S'INYO'
p2182
sS'95320'
p2183
S'San Joaquin'
p2184
sS'93160'
p2185
S'SANTA BARBARA'
p2186
sS'96034'
p2187
S'Siskiyou'
p2188
sS'92708'
p2189
S'ORANGE'
p2190
sS'92701'
p2191
S'ORANGE'
p2192
sS'92703'
p2193
S'ORANGE'
p2194
sS'92702'
p2195
S'ORANGE'
p2196
sS'92705'
p2197
S'ORANGE'
p2198
sS'92704'
p2199
S'ORANGE'
p2200
sS'92707'
p2201
S'ORANGE'
p2202
sS'92706'
p2203
S'ORANGE'
p2204
sS'90848'
p2205
S'LOS ANGELES'
p2206
sS'90840'
p2207
S'LOS ANGELES'
p2208
sS'90842'
p2209
S'LOS ANGELES'
p2210
sS'90844'
p2211
S'LOS ANGELES'
p2212
sS'90846'
p2213
S'LOS ANGELES'
p2214
sS'90847'
p2215
S'LOS ANGELES'
p2216
sS'93388'
p2217
S'KERN'
p2218
sS'93389'
p2219
S'KERN'
p2220
sS'93386'
p2221
S'KERN'
p2222
sS'93387'
p2223
S'KERN'
p2224
sS'93384'
p2225
S'KERN'
p2226
sS'93385'
p2227
S'KERN'
p2228
sS'93383'
p2229
S'KERN'
p2230
sS'93380'
p2231
S'KERN'
p2232
sS'92014'
p2233
S'SAN DIEGO'
p2234
sS'92011'
p2235
S'SAN DIEGO'
p2236
sS'93549'
p2237
S'INYO'
p2238
sS'92013'
p2239
S'SAN DIEGO'
p2240
sS'93544'
p2241
S'LOS ANGELES'
p2242
sS'93545'
p2243
S'INYO'
p2244
sS'93546'
p2245
S'MONO'
p2246
sS'93015'
p2247
S'VENTURA'
p2248
sS'92019'
p2249
S'SAN DIEGO'
p2250
sS'93013'
p2251
S'SANTA BARBARA'
p2252
sS'93542'
p2253
S'INYO'
p2254
sS'93543'
p2255
S'LOS ANGELES'
p2256
sS'93940'
p2257
S'MONTEREY'
p2258
sS'93942'
p2259
S'MONTEREY'
p2260
sS'93943'
p2261
S'MONTEREY'
p2262
sS'93944'
p2263
S'MONTEREY'
p2264
sS'95538'
p2265
S'Del Norte'
p2266
sS'95537'
p2267
S'Humboldt'
p2268
sS'95536'
p2269
S'Humboldt'
p2270
sS'95534'
p2271
S'Humboldt'
p2272
sS'95532'
p2273
S'Del Norte'
p2274
sS'95531'
p2275
S'Del Norte'
p2276
sS'95032'
p2277
S'SANTA CLARA'
p2278
sS'94288'
p2279
S'SACRAMENTO'
p2280
sS'94289'
p2281
S'SACRAMENTO'
p2282
sS'93227'
p2283
S'TULARE'
p2284
sS'94282'
p2285
S'SACRAMENTO'
p2286
sS'94283'
p2287
S'SACRAMENTO'
p2288
sS'94280'
p2289
S'SACRAMENTO'
p2290
sS'94286'
p2291
S'SACRAMENTO'
p2292
sS'94287'
p2293
S'SACRAMENTO'
p2294
sS'94284'
p2295
S'SACRAMENTO'
p2296
sS'94285'
p2297
S'SACRAMENTO'
p2298
sS'93140'
p2299
S'SANTA BARBARA'
p2300
sS'95692'
p2301
S'Yuba'
p2302
sS'95693'
p2303
S'Sacramento'
p2304
sS'94130'
p2305
S'SAN FRANCISCO'
p2306
sS'94131'
p2307
S'SAN FRANCISCO'
p2308
sS'94132'
p2309
S'SAN FRANCISCO'
p2310
sS'94133'
p2311
S'SAN FRANCISCO'
p2312
sS'94134'
p2313
S'SAN FRANCISCO'
p2314
sS'94137'
p2315
S'SAN FRANCISCO'
p2316
sS'95403'
p2317
S'Sonoma'
p2318
sS'94139'
p2319
S'SAN FRANCISCO'
p2320
sS'95401'
p2321
S'Sonoma'
p2322
sS'92728'
p2323
S'ORANGE'
p2324
sS'95407'
p2325
S'Sonoma'
p2326
sS'95038'
p2327
S'SANTA CLARA'
p2328
sS'95405'
p2329
S'Sonoma'
p2330
sS'95404'
p2331
S'Sonoma'
p2332
sS'90620'
p2333
S'ORANGE'
p2334
sS'90621'
p2335
S'ORANGE'
p2336
sS'90622'
p2337
S'ORANGE'
p2338
sS'90623'
p2339
S'ORANGE'
p2340
sS'90624'
p2341
S'ORANGE'
p2342
sS'95694'
p2343
S'Yolo'
p2344
sS'90292'
p2345
S'LOS ANGELES'
p2346
sS'92649'
p2347
S'ORANGE'
p2348
sS'94529'
p2349
S'CONTRA COSTA'
p2350
sS'95717'
p2351
S'Placer'
p2352
sS'92860'
p2353
S'RIVERSIDE'
p2354
sS'95715'
p2355
S'Placer'
p2356
sS'94528'
p2357
S'CONTRA COSTA'
p2358
sS'95713'
p2359
S'Placer'
p2360
sS'95712'
p2361
S'Nevada'
p2362
sS'92861'
p2363
S'ORANGE'
p2364
sS'92862'
p2365
S'ORANGE'
p2366
sS'92863'
p2367
S'ORANGE'
p2368
sS'94624'
p2369
S'ALAMEDA'
p2370
sS'92864'
p2371
S'ORANGE'
p2372
sS'94620'
p2373
S'ALAMEDA'
p2374
sS'94621'
p2375
S'ALAMEDA'
p2376
sS'94622'
p2377
S'ALAMEDA'
p2378
sS'92865'
p2379
S'ORANGE'
p2380
sS'94523'
p2381
S'CONTRA COSTA'
p2382
sS'92866'
p2383
S'ORANGE'
p2384
sS'90714'
p2385
S'LOS ANGELES'
p2386
sS'90715'
p2387
S'LOS ANGELES'
p2388
sS'90716'
p2389
S'LOS ANGELES'
p2390
sS'92867'
p2391
S'ORANGE'
p2392
sS'90710'
p2393
S'LOS ANGELES'
p2394
sS'90711'
p2395
S'LOS ANGELES'
p2396
sS'90712'
p2397
S'LOS ANGELES'
p2398
sS'90713'
p2399
S'LOS ANGELES'
p2400
sS'94527'
p2401
S'CONTRA COSTA'
p2402
sS'95203'
p2403
S'SAN JOAQUIN'
p2404
sS'94526'
p2405
S'CONTRA COSTA'
p2406
sS'95691'
p2407
S'Yolo'
p2408
sS'94720'
p2409
S'ALAMEDA'
p2410
sS'95663'
p2411
S'Placer'
p2412
sS'95662'
p2413
S'Sacramento'
p2414
sS'95661'
p2415
S'Placer'
p2416
sS'95660'
p2417
S'Sacramento'
p2418
sS'95667'
p2419
S'El Dorado'
p2420
sS'95666'
p2421
S'Amador'
p2422
sS'95665'
p2423
S'Amador'
p2424
sS'95664'
p2425
S'El Dorado'
p2426
sS'95669'
p2427
S'Amador'
p2428
sS'95202'
p2429
S'SAN JOAQUIN'
p2430
sS'91396'
p2431
S'LOS ANGELES'
p2432
sS'91395'
p2433
S'LOS ANGELES'
p2434
sS'91394'
p2435
S'LOS ANGELES'
p2436
sS'91393'
p2437
S'LOS ANGELES'
p2438
sS'91392'
p2439
S'LOS ANGELES'
p2440
sS'91390'
p2441
S'LOS ANGELES'
p2442
sS'91409'
p2443
S'LOS ANGELES'
p2444
sS'91408'
p2445
S'LOS ANGELES'
p2446
sS'91407'
p2447
S'LOS ANGELES'
p2448
sS'91406'
p2449
S'LOS ANGELES'
p2450
sS'91405'
p2451
S'LOS ANGELES'
p2452
sS'91404'
p2453
S'LOS ANGELES'
p2454
sS'91403'
p2455
S'LOS ANGELES'
p2456
sS'91402'
p2457
S'LOS ANGELES'
p2458
sS'91401'
p2459
S'LOS ANGELES'
p2460
sS'94920'
p2461
S'MARIN'
p2462
sS'91792'
p2463
S'LOS ANGELES'
p2464
sS'92572'
p2465
S'RIVERSIDE'
p2466
sS'95253'
p2467
S'SAN JOAQUIN'
p2468
sS'92570'
p2469
S'RIVERSIDE'
p2470
sS'92571'
p2471
S'RIVERSIDE'
p2472
sS'95257'
p2473
S'Calaveras'
p2474
sS'95254'
p2475
S'Calaveras'
p2476
sS'95255'
p2477
S'Calaveras'
p2478
sS'95258'
p2479
S'San Joaquin'
p2480
sS'91711'
p2481
S'LOS ANGELES'
p2482
sS'91710'
p2483
S'SAN BERNARDINO'
p2484
sS'91716'
p2485
S'LOS ANGELES'
p2486
sS'91715'
p2487
S'LOS ANGELES'
p2488
sS'91714'
p2489
S'LOS ANGELES'
p2490
sS'91977'
p2491
S'SAN DIEGO'
p2492
sS'91976'
p2493
S'SAN DIEGO'
p2494
sS'91979'
p2495
S'SAN DIEGO'
p2496
sS'91978'
p2497
S'SAN DIEGO'
p2498
sS'93711'
p2499
S'FRESNO'
p2500
sS'93710'
p2501
S'FRESNO'
p2502
sS'93712'
p2503
S'FRESNO'
p2504
sS'93715'
p2505
S'FRESNO'
p2506
sS'93714'
p2507
S'FRESNO'
p2508
sS'93717'
p2509
S'FRESNO'
p2510
sS'93716'
p2511
S'FRESNO'
p2512
sS'93718'
p2513
S'FRESNO'
p2514
sS'95540'
p2515
S'Humboldt'
p2516
sS'92378'
p2517
S'SAN BERNARDINO'
p2518
sS'95241'
p2519
S'SAN JOAQUIN'
p2520
sS'92371'
p2521
S'SAN BERNARDINO'
p2522
sS'92372'
p2523
S'SAN BERNARDINO'
p2524
sS'92373'
p2525
S'SAN BERNARDINO'
p2526
sS'92374'
p2527
S'SAN BERNARDINO'
p2528
sS'92375'
p2529
S'SAN BERNARDINO'
p2530
sS'92376'
p2531
S'SAN BERNARDINO'
p2532
sS'92377'
p2533
S'SAN BERNARDINO'
p2534
sS'91377'
p2535
S'VENTURA'
p2536
sS'91376'
p2537
S'LOS ANGELES'
p2538
sS'91371'
p2539
S'LOS ANGELES'
p2540
sS'95389'
p2541
S'Mariposa'
p2542
sS'92178'
p2543
S'SAN DIEGO'
p2544
sS'92179'
p2545
S'SAN DIEGO'
p2546
sS'92176'
p2547
S'SAN DIEGO'
p2548
sS'92177'
p2549
S'SAN DIEGO'
p2550
sS'92174'
p2551
S'SAN DIEGO'
p2552
sS'92175'
p2553
S'SAN DIEGO'
p2554
sS'92172'
p2555
S'SAN DIEGO'
p2556
sS'92173'
p2557
S'SAN DIEGO'
p2558
sS'92170'
p2559
S'SAN DIEGO'
p2560
sS'92171'
p2561
S'SAN DIEGO'
p2562
sS'92397'
p2563
S'SAN BERNARDINO'
p2564
sS'92394'
p2565
S'SAN BERNARDINO'
p2566
sS'92395'
p2567
S'SAN BERNARDINO'
p2568
sS'92392'
p2569
S'SAN BERNARDINO'
p2570
sS'92393'
p2571
S'SAN BERNARDINO'
p2572
sS'92391'
p2573
S'SAN BERNARDINO'
p2574
sS'92398'
p2575
S'SAN BERNARDINO'
p2576
sS'92399'
p2577
S'SAN BERNARDINO'
p2578
sS'93628'
p2579
S'FRESNO'
p2580
sS'93625'
p2581
S'FRESNO'
p2582
sS'93624'
p2583
S'FRESNO'
p2584
sS'93627'
p2585
S'FRESNO'
p2586
sS'93626'
p2587
S'FRESNO'
p2588
sS'93621'
p2589
S'FRESNO'
p2590
sS'93620'
p2591
S'MERCED'
p2592
sS'93623'
p2593
S'MARIPOSA'
p2594
sS'93150'
p2595
S'SANTA BARBARA'
p2596
sS'93529'
p2597
S'MONO'
p2598
sS'93278'
p2599
S'TULARE'
p2600
sS'92712'
p2601
S'ORANGE'
p2602
sS'92711'
p2603
S'ORANGE'
p2604
sS'91316'
p2605
S'LOS ANGELES'
p2606
sS'96002'
p2607
S'Shasta'
p2608
sS'96003'
p2609
S'Shasta'
p2610
sS'96001'
p2611
S'Shasta'
p2612
sS'95328'
p2613
S'Stanislaus'
p2614
sS'96006'
p2615
S'Modoc'
p2616
sS'95329'
p2617
S'Mariposa'
p2618
sS'96007'
p2619
S'Shasta'
p2620
sS'93539'
p2621
S'LOS ANGELES'
p2622
sS'92007'
p2623
S'SAN DIEGO'
p2624
sS'92004'
p2625
S'SAN DIEGO'
p2626
sS'92003'
p2627
S'SAN DIEGO'
p2628
sS'95327'
p2629
S'Tuolumne'
p2630
sS'93023'
p2631
S'VENTURA'
p2632
sS'93022'
p2633
S'VENTURA'
p2634
sS'93021'
p2635
S'VENTURA'
p2636
sS'93532'
p2637
S'LOS ANGELES'
p2638
sS'93535'
p2639
S'LOS ANGELES'
p2640
sS'93534'
p2641
S'LOS ANGELES'
p2642
sS'92008'
p2643
S'SAN DIEGO'
p2644
sS'92009'
p2645
S'SAN DIEGO'
p2646
sS'95528'
p2647
S'Humboldt'
p2648
sS'95325'
p2649
S'Mariposa'
p2650
sS'95322'
p2651
S'Merced'
p2652
sS'95524'
p2653
S'Humboldt'
p2654
sS'95525'
p2655
S'Humboldt'
p2656
sS'95526'
p2657
S'Humboldt'
p2658
sS'95323'
p2659
S'Stanislaus'
p2660
sS'91319'
p2661
S'VENTURA'
p2662
sS'95321'
p2663
S'Tuolumne'
p2664
sS'93445'
p2665
S'SAN LUIS OBISPO'
p2666
sS'93444'
p2667
S'SAN LUIS OBISPO'
p2668
sS'93447'
p2669
S'SAN LUIS OBISPO'
p2670
sS'93446'
p2671
S'SAN LUIS OBISPO'
p2672
sS'93441'
p2673
S'SANTA BARBARA'
p2674
sS'93440'
p2675
S'SANTA BARBARA'
p2676
sS'93443'
p2677
S'SAN LUIS OBISPO'
p2678
sS'93442'
p2679
S'SAN LUIS OBISPO'
p2680
sS'93449'
p2681
S'SAN LUIS OBISPO'
p2682
sS'93448'
p2683
S'SAN LUIS OBISPO'
p2684
sS'95415'
p2685
S'Mendocino'
p2686
sS'95416'
p2687
S'Sonoma'
p2688
sS'95417'
p2689
S'Mendocino'
p2690
sS'95410'
p2691
S'Mendocino'
p2692
sS'95412'
p2693
S'Sonoma'
p2694
sS'95418'
p2695
S'Mendocino'
p2696
sS'95419'
p2697
S'Sonoma'
p2698
sS'93779'
p2699
S'FRESNO'
p2700
sS'94016'
p2701
S'SAN MATEO'
p2702
sS'90895'
p2703
S'LOS ANGELES'
p2704
sS'90899'
p2705
S'LOS ANGELES'
p2706
sS'96156'
p2707
S'Alpine'
p2708
sS'96038'
p2709
S'Siskiyou'
p2710
sS'95741'
p2711
S'Sacramento'
p2712
sS'95701'
p2713
S'Placer'
p2714
sS'95703'
p2715
S'Placer'
p2716
sS'95977'
p2717
S'Yuba'
p2718
sS'95709'
p2719
S'El Dorado'
p2720
sS'96157'
p2721
S'El Dorado'
p2722
sS'94659'
p2723
S'ALAMEDA'
p2724
sS'90099'
p2725
S'LOS ANGELES'
p2726
sS'90093'
p2727
S'LOS ANGELES'
p2728
sS'90721'
p2729
S'ORANGE'
p2730
sS'90091'
p2731
S'LOS ANGELES'
p2732
sS'90090'
p2733
S'LOS ANGELES'
p2734
sS'90096'
p2735
S'LOS ANGELES'
p2736
sS'90095'
p2737
S'LOS ANGELES'
p2738
sS'90052'
p2739
S'LOS ANGELES'
p2740
sS'90723'
p2741
S'LOS ANGELES'
p2742
sS'95370'
p2743
S'Tuolumne'
p2744
sS'95678'
p2745
S'Placer'
p2746
sS'95679'
p2747
S'Yolo'
p2748
sS'95674'
p2749
S'Sutter'
p2750
sS'95675'
p2751
S'Amador'
p2752
sS'95676'
p2753
S'Sutter'
p2754
sS'95677'
p2755
S'Placer'
p2756
sS'95670'
p2757
S'Sacramento'
p2758
sS'95671'
p2759
S'Sacramento'
p2760
sS'95672'
p2761
S'El Dorado'
p2762
sS'95673'
p2763
S'Sacramento'
p2764
sS'91380'
p2765
S'LOS ANGELES'
p2766
sS'91381'
p2767
S'LOS ANGELES'
p2768
sS'91382'
p2769
S'LOS ANGELES'
p2770
sS'91383'
p2771
S'LOS ANGELES'
p2772
sS'91384'
p2773
S'LOS ANGELES'
p2774
sS'91385'
p2775
S'LOS ANGELES'
p2776
sS'91386'
p2777
S'LOS ANGELES'
p2778
sS'91387'
p2779
S'LOS ANGELES'
p2780
sS'94938'
p2781
S'MARIN'
p2782
sS'94939'
p2783
S'MARIN'
p2784
sS'96137'
p2785
S'Lassen'
p2786
sS'91410'
p2787
S'LOS ANGELES'
p2788
sS'91411'
p2789
S'LOS ANGELES'
p2790
sS'91412'
p2791
S'LOS ANGELES'
p2792
sS'91413'
p2793
S'LOS ANGELES'
p2794
sS'96134'
p2795
S'Siskiyou'
p2796
sS'91416'
p2797
S'LOS ANGELES'
p2798
sS'94937'
p2799
S'MARIN'
p2800
sS'96135'
p2801
S'Plumas'
p2802
sS'96132'
p2803
S'Lassen'
p2804
sS'96133'
p2805
S'Mono'
p2806
sS'96130'
p2807
S'Lassen'
p2808
sS'92549'
p2809
S'RIVERSIDE'
p2810
sS'92548'
p2811
S'RIVERSIDE'
p2812
sS'95267'
p2813
S'San Joaquin'
p2814
sS'92546'
p2815
S'RIVERSIDE'
p2816
sS'92545'
p2817
S'RIVERSIDE'
p2818
sS'92544'
p2819
S'RIVERSIDE'
p2820
sS'92543'
p2821
S'RIVERSIDE'
p2822
sS'91706'
p2823
S'LOS ANGELES'
p2824
sS'91701'
p2825
S'SAN BERNARDINO'
p2826
sS'91702'
p2827
S'LOS ANGELES'
p2828
sS'94579'
p2829
S'ALAMEDA'
p2830
sS'95065'
p2831
S'SANTA CRUZ'
p2832
sS'95064'
p2833
S'SANTA CRUZ'
p2834
sS'95067'
p2835
S'SANTA CRUZ'
p2836
sS'95066'
p2837
S'SANTA CRUZ'
p2838
sS'91708'
p2839
S'SAN BERNARDINO'
p2840
sS'91709'
p2841
S'SAN BERNARDINO'
p2842
sS'95063'
p2843
S'SANTA CRUZ'
p2844
sS'95062'
p2845
S'SANTA CRUZ'
p2846
sS'96024'
p2847
S'Trinity'
p2848
sS'91962'
p2849
S'SAN DIEGO'
p2850
sS'91963'
p2851
S'SAN DIEGO'
p2852
sS'93702'
p2853
S'FRESNO'
p2854
sS'93703'
p2855
S'FRESNO'
p2856
sS'93701'
p2857
S'FRESNO'
p2858
sS'93706'
p2859
S'FRESNO'
p2860
sS'93707'
p2861
S'FRESNO'
p2862
sS'93704'
p2863
S'FRESNO'
p2864
sS'93705'
p2865
S'FRESNO'
p2866
sS'93708'
p2867
S'FRESNO'
p2868
sS'93709'
p2869
S'FRESNO'
p2870
sS'94575'
p2871
S'CONTRA COSTA'
p2872
sS'91367'
p2873
S'LOS ANGELES'
p2874
sS'91364'
p2875
S'LOS ANGELES'
p2876
sS'91365'
p2877
S'LOS ANGELES'
p2878
sS'91362'
p2879
S'VENTURA'
p2880
sS'91360'
p2881
S'VENTURA'
p2882
sS'91361'
p2883
S'VENTURA'
p2884
sS'92143'
p2885
S'SAN DIEGO'
p2886
sS'92142'
p2887
S'SAN DIEGO'
p2888
sS'92140'
p2889
S'SAN DIEGO'
p2890
sS'92147'
p2891
S'SAN DIEGO'
p2892
sS'92145'
p2893
S'SAN DIEGO'
p2894
sS'95843'
p2895
S'Sacramento'
p2896
sS'95842'
p2897
S'Sacramento'
p2898
sS'95841'
p2899
S'Sacramento'
p2900
sS'95840'
p2901
S'Sacramento'
p2902
sS'92815'
p2903
S'ORANGE'
p2904
sS'92814'
p2905
S'ORANGE'
p2906
sS'92817'
p2907
S'ORANGE'
p2908
sS'92816'
p2909
S'ORANGE'
p2910
sS'92811'
p2911
S'ORANGE'
p2912
sS'92812'
p2913
S'ORANGE'
p2914
sS'93638'
p2915
S'MADERA'
p2916
sS'93639'
p2917
S'MADERA'
p2918
sS'93636'
p2919
S'MADERA'
p2920
sS'93637'
p2921
S'MADERA'
p2922
sS'93634'
p2923
S'FRESNO'
p2924
sS'93635'
p2925
S'MERCED'
p2926
sS'93633'
p2927
S'TULARE'
p2928
sS'93630'
p2929
S'FRESNO'
p2930
sS'93631'
p2931
S'FRESNO'
p2932
sS'94801'
p2933
S'CONTRA COSTA'
p2934
sS'95865'
p2935
S'Sacramento'
p2936
sS'94011'
p2937
S'SAN MATEO'
p2938
sS'95864'
p2939
S'Sacramento'
p2940
sS'95549'
p2941
S'Humboldt'
p2942
sS'95546'
p2943
S'Humboldt'
p2944
sS'95866'
p2945
S'Sacramento'
p2946
sS'93034'
p2947
S'VENTURA'
p2948
sS'93035'
p2949
S'VENTURA'
p2950
sS'93036'
p2951
S'VENTURA'
p2952
sS'93030'
p2953
S'VENTURA'
p2954
sS'93031'
p2955
S'VENTURA'
p2956
sS'93032'
p2957
S'VENTURA'
p2958
sS'93033'
p2959
S'VENTURA'
p2960
sS'92033'
p2961
S'SAN DIEGO'
p2962
sS'93528'
p2963
S'KERN'
p2964
sS'92030'
p2965
S'SAN DIEGO'
p2966
sS'92037'
p2967
S'SAN DIEGO'
p2968
sS'92036'
p2969
S'SAN DIEGO'
p2970
sS'93522'
p2971
S'INYO'
p2972
sS'93523'
p2973
S'KERN'
p2974
sS'92039'
p2975
S'SAN DIEGO'
p2976
sS'92038'
p2977
S'SAN DIEGO'
p2978
sS'93526'
p2979
S'INYO'
p2980
sS'93527'
p2981
S'KERN'
p2982
sS'93524'
p2983
S'KERN'
p2984
sS'93456'
p2985
S'SANTA BARBARA'
p2986
sS'93457'
p2987
S'SANTA BARBARA'
p2988
sS'93454'
p2989
S'SANTA BARBARA'
p2990
sS'93455'
p2991
S'SANTA BARBARA'
p2992
sS'93452'
p2993
S'SAN LUIS OBISPO'
p2994
sS'93453'
p2995
S'SAN LUIS OBISPO'
p2996
sS'93450'
p2997
S'MONTEREY'
p2998
sS'93451'
p2999
S'SAN LUIS OBISPO'
p3000
sS'93458'
p3001
S'SANTA BARBARA'
p3002
sS'95461'
p3003
S'Lake'
p3004
sS'95460'
p3005
S'Mendocino'
p3006
sS'95463'
p3007
S'Mendocino'
p3008
sS'95462'
p3009
S'Sonoma'
p3010
sS'95465'
p3011
S'Sonoma'
p3012
sS'95464'
p3013
S'Lake'
p3014
sS'95467'
p3015
S'Lake'
p3016
sS'95466'
p3017
S'Mendocino'
p3018
sS'95469'
p3019
S'Lake'
p3020
sS'95468'
p3021
S'Mendocino'
p3022
sS'96142'
p3023
S'El Dorado'
p3024
sS'90084'
p3025
S'LOS ANGELES'
p3026
sS'90086'
p3027
S'LOS ANGELES'
p3028
sS'90087'
p3029
S'LOS ANGELES'
p3030
sS'90080'
p3031
S'LOS ANGELES'
p3032
sS'90081'
p3033
S'LOS ANGELES'
p3034
sS'90082'
p3035
S'LOS ANGELES'
p3036
sS'90083'
p3037
S'LOS ANGELES'
p3038
sS'96141'
p3039
S'Placer'
p3040
sS'90088'
p3041
S'LOS ANGELES'
p3042
sS'90089'
p3043
S'LOS ANGELES'
p3044
sS'94709'
p3045
S'ALAMEDA'
p3046
sS'94708'
p3047
S'ALAMEDA'
p3048
sS'94707'
p3049
S'ALAMEDA'
p3050
sS'94706'
p3051
S'ALAMEDA'
p3052
sS'94705'
p3053
S'ALAMEDA'
p3054
sS'94704'
p3055
S'ALAMEDA'
p3056
sS'94703'
p3057
S'ALAMEDA'
p3058
sS'94702'
p3059
S'ALAMEDA'
p3060
sS'94701'
p3061
S'ALAMEDA'
p3062
sS'95609'
p3063
S'Sacramento'
p3064
sS'95608'
p3065
S'Sacramento'
p3066
sS'95811'
p3067
S'Sacramento'
p3068
sS'95601'
p3069
S'Amador'
p3070
sS'95603'
p3071
S'Placer'
p3072
sS'95602'
p3073
S'Placer'
p3074
sS'95605'
p3075
S'Yolo'
p3076
sS'92840'
p3077
S'ORANGE'
p3078
sS'95607'
p3079
S'Yolo'
p3080
sS'95606'
p3081
S'Yolo'
p3082
sS'95813'
p3083
S'Sacramento'
p3084
sS'92662'
p3085
S'ORANGE'
p3086
sS'95910'
p3087
S'Sierra'
p3088
sS'95815'
p3089
S'Sacramento'
p3090
sS'92660'
p3091
S'ORANGE'
p3092
sS'92661'
p3093
S'ORANGE'
p3094
sS'93791'
p3095
S'FRESNO'
p3096
sS'93790'
p3097
S'FRESNO'
p3098
sS'93793'
p3099
S'FRESNO'
p3100
sS'95115'
p3101
S'SANTA CLARA'
p3102
sS'95117'
p3103
S'SANTA CLARA'
p3104
sS'93792'
p3105
S'FRESNO'
p3106
sS'95111'
p3107
S'SANTA CLARA'
p3108
sS'95110'
p3109
S'SANTA CLARA'
p3110
sS'95113'
p3111
S'SANTA CLARA'
p3112
sS'95112'
p3113
S'SANTA CLARA'
p3114
sS'95119'
p3115
S'SANTA CLARA'
p3116
sS'95118'
p3117
S'SANTA CLARA'
p3118
sS'93794'
p3119
S'FRESNO'
p3120
sS'94505'
p3121
S'CONTRA COSTA'
p3122
sS'91756'
p3123
S'LOS ANGELES'
p3124
sS'94507'
p3125
S'CONTRA COSTA'
p3126
sS'94506'
p3127
S'CONTRA COSTA'
p3128
sS'94501'
p3129
S'ALAMEDA'
p3130
sS'91752'
p3131
S'RIVERSIDE'
p3132
sS'94503'
p3133
S'NAPA'
p3134
sS'92551'
p3135
S'RIVERSIDE'
p3136
sS'92552'
p3137
S'RIVERSIDE'
p3138
sS'92553'
p3139
S'RIVERSIDE'
p3140
sS'92554'
p3141
S'RIVERSIDE'
p3142
sS'92555'
p3143
S'RIVERSIDE'
p3144
sS'92556'
p3145
S'RIVERSIDE'
p3146
sS'92557'
p3147
S'RIVERSIDE'
p3148
sS'91771'
p3149
S'LOS ANGELES'
p3150
sS'91770'
p3151
S'LOS ANGELES'
p3152
sS'91773'
p3153
S'LOS ANGELES'
p3154
sS'91772'
p3155
S'LOS ANGELES'
p3156
sS'91775'
p3157
S'LOS ANGELES'
p3158
sS'91776'
p3159
S'LOS ANGELES'
p3160
sS'95076'
p3161
S'SANTA CRUZ'
p3162
sS'91778'
p3163
S'LOS ANGELES'
p3164
sS'95075'
p3165
S'SAN BENITO'
p3166
sS'95073'
p3167
S'SANTA CRUZ'
p3168
sS'95070'
p3169
S'SANTA CLARA'
p3170
sS'95071'
p3171
S'SANTA CLARA'
p3172
sS'93744'
p3173
S'FRESNO'
p3174
sS'96025'
p3175
S'Siskiyou'
p3176
sS'91911'
p3177
S'SAN DIEGO'
p3178
sS'91910'
p3179
S'SAN DIEGO'
p3180
sS'91913'
p3181
S'SAN DIEGO'
p3182
sS'91912'
p3183
S'SAN DIEGO'
p3184
sS'91915'
p3185
S'SAN DIEGO'
p3186
sS'91914'
p3187
S'SAN DIEGO'
p3188
sS'91917'
p3189
S'SAN DIEGO'
p3190
sS'91916'
p3191
S'SAN DIEGO'
p3192
sS'94649'
p3193
S'ALAMEDA'
p3194
sS'93737'
p3195
S'FRESNO'
p3196
sS'95668'
p3197
S'Sutter'
p3198
sS'93730'
p3199
S'FRESNO'
p3200
sS'92154'
p3201
S'SAN DIEGO'
p3202
sS'92155'
p3203
S'SAN DIEGO'
p3204
sS'92150'
p3205
S'SAN DIEGO'
p3206
sS'92152'
p3207
S'SAN DIEGO'
p3208
sS'92153'
p3209
S'SAN DIEGO'
p3210
sS'92158'
p3211
S'SAN DIEGO'
p3212
sS'92159'
p3213
S'SAN DIEGO'
p3214
sS'91353'
p3215
S'LOS ANGELES'
p3216
sS'91352'
p3217
S'LOS ANGELES'
p3218
sS'91351'
p3219
S'LOS ANGELES'
p3220
sS'91350'
p3221
S'LOS ANGELES'
p3222
sS'91609'
p3223
S'LOS ANGELES'
p3224
sS'91608'
p3225
S'LOS ANGELES'
p3226
sS'91355'
p3227
S'LOS ANGELES'
p3228
sS'91354'
p3229
S'LOS ANGELES'
p3230
sS'91605'
p3231
S'LOS ANGELES'
p3232
sS'91604'
p3233
S'LOS ANGELES'
p3234
sS'91359'
p3235
S'VENTURA'
p3236
sS'91606'
p3237
S'LOS ANGELES'
p3238
sS'91601'
p3239
S'LOS ANGELES'
p3240
sS'91603'
p3241
S'LOS ANGELES'
p3242
sS'91602'
p3243
S'LOS ANGELES'
p3244
sS'96032'
p3245
S'Siskiyou'
p3246
sS'92808'
p3247
S'ORANGE'
p3248
sS'92809'
p3249
S'ORANGE'
p3250
sS'92806'
p3251
S'ORANGE'
p3252
sS'92807'
p3253
S'ORANGE'
p3254
sS'92804'
p3255
S'ORANGE'
p3256
sS'92805'
p3257
S'ORANGE'
p3258
sS'92802'
p3259
S'ORANGE'
p3260
sS'92803'
p3261
S'ORANGE'
p3262
sS'95852'
p3263
S'Sacramento'
p3264
sS'92801'
p3265
S'ORANGE'
p3266
sS'93609'
p3267
S'FRESNO'
p3268
sS'93608'
p3269
S'FRESNO'
p3270
sS'92735'
p3271
S'ORANGE'
p3272
sS'93603'
p3273
S'TULARE'
p3274
sS'93602'
p3275
S'FRESNO'
p3276
sS'93601'
p3277
S'MADERA'
p3278
sS'93607'
p3279
S'FRESNO'
p3280
sS'93606'
p3281
S'FRESNO'
p3282
sS'93605'
p3283
S'FRESNO'
p3284
sS'93604'
p3285
S'MADERA'
p3286
sS'95296'
p3287
S'San Joaquin'
p3288
sS'95297'
p3289
S'San Joaquin'
p3290
sS'93740'
p3291
S'FRESNO'
p3292
sS'93190'
p3293
S'SANTA BARBARA'
p3294
sS'96146'
p3295
S'Placer'
p3296
sS'93199'
p3297
S'SANTA BARBARA'
p3298
sS'96143'
p3299
S'Placer'
p3300
sS'93422'
p3301
S'SAN LUIS OBISPO'
p3302
sS'93517'
p3303
S'MONO'
p3304
sS'93516'
p3305
S'KERN'
p3306
sS'93515'
p3307
S'INYO'
p3308
sS'93514'
p3309
S'INYO'
p3310
sS'93513'
p3311
S'INYO'
p3312
sS'93044'
p3313
S'VENTURA'
p3314
sS'96031'
p3315
S'Siskiyou'
p3316
sS'93510'
p3317
S'LOS ANGELES'
p3318
sS'96140'
p3319
S'Placer'
p3320
sS'93519'
p3321
S'KERN'
p3322
sS'93518'
p3323
S'KERN'
p3324
sS'93287'
p3325
S'KERN'
p3326
sS'93286'
p3327
S'TULARE'
p3328
sS'93285'
p3329
S'KERN'
p3330
sS'92028'
p3331
S'SAN DIEGO'
p3332
sS'92029'
p3333
S'SAN DIEGO'
p3334
sS'93280'
p3335
S'KERN'
p3336
sS'92024'
p3337
S'SAN DIEGO'
p3338
sS'92025'
p3339
S'SAN DIEGO'
p3340
sS'92026'
p3341
S'SAN DIEGO'
p3342
sS'92027'
p3343
S'SAN DIEGO'
p3344
sS'92020'
p3345
S'SAN DIEGO'
p3346
sS'92021'
p3347
S'SAN DIEGO'
p3348
sS'92022'
p3349
S'SAN DIEGO'
p3350
sS'92023'
p3351
S'SAN DIEGO'
p3352
sS'94259'
p3353
S'SACRAMENTO'
p3354
sS'94258'
p3355
S'SACRAMENTO'
p3356
sS'94254'
p3357
S'SACRAMENTO'
p3358
sS'94257'
p3359
S'SACRAMENTO'
p3360
sS'94256'
p3361
S'SACRAMENTO'
p3362
sS'94250'
p3363
S'SACRAMENTO'
p3364
sS'94252'
p3365
S'SACRAMENTO'
p3366
sS'92616'
p3367
S'ORANGE'
p3368
sS'90411'
p3369
S'LOS ANGELES'
p3370
sS'90410'
p3371
S'LOS ANGELES'
p3372
sS'93463'
p3373
S'SANTA BARBARA'
p3374
sS'93461'
p3375
S'SAN LUIS OBISPO'
p3376
sS'93460'
p3377
S'SANTA BARBARA'
p3378
sS'96107'
p3379
S'Mono'
p3380
sS'96106'
p3381
S'Plumas'
p3382
sS'93465'
p3383
S'SAN LUIS OBISPO'
p3384
sS'93464'
p3385
S'SANTA BARBARA'
p3386
sS'96068'
p3387
S'Lassen'
p3388
sS'96109'
p3389
S'Lassen'
p3390
sS'96108'
p3391
S'Modoc'
p3392
sS'92010'
p3393
S'SAN DIEGO'
p3394
sS'95472'
p3395
S'Sonoma'
p3396
sS'95473'
p3397
S'Sonoma'
p3398
sS'95470'
p3399
S'Mendocino'
p3400
sS'95471'
p3401
S'Sonoma'
p3402
sS'95476'
p3403
S'Sonoma'
p3404
sS'92509'
p3405
S'RIVERSIDE'
p3406
sS'93016'
p3407
S'VENTURA'
p3408
sS'95228'
p3409
S'CALAVERAS'
p3410
sS'96065'
p3411
S'Shasta'
p3412
sS'93014'
p3413
S'SANTA BARBARA'
p3414
sS'96067'
p3415
S'Siskiyou'
p3416
sS'93012'
p3417
S'VENTURA'
p3418
sS'93541'
p3419
S'MONO'
p3420
sS'95223'
p3421
S'CALAVERAS'
p3422
sS'93010'
p3423
S'VENTURA'
p3424
sS'95222'
p3425
S'CALAVERAS'
p3426
sS'93011'
p3427
S'VENTURA'
p3428
sS'95221'
p3429
S'CALAVERAS'
p3430
sS'95227'
p3431
S'SAN JOAQUIN'
p3432
sS'95226'
p3433
S'CALAVERAS'
p3434
sS'95225'
p3435
S'CALAVERAS'
p3436
sS'95224'
p3437
S'CALAVERAS'
p3438
sS'90747'
p3439
S'LOS ANGELES'
p3440
sS'90746'
p3441
S'LOS ANGELES'
p3442
sS'90745'
p3443
S'LOS ANGELES'
p3444
sS'90744'
p3445
S'LOS ANGELES'
p3446
sS'90743'
p3447
S'ORANGE'
p3448
sS'90742'
p3449
S'ORANGE'
p3450
sS'90740'
p3451
S'ORANGE'
p3452
sS'90749'
p3453
S'LOS ANGELES'
p3454
sS'90748'
p3455
S'LOS ANGELES'
p3456
sS'94710'
p3457
S'ALAMEDA'
p3458
sS'94712'
p3459
S'ALAMEDA'
p3460
sS'95618'
p3461
S'Yolo'
p3462
sS'95619'
p3463
S'El Dorado'
p3464
sS'95612'
p3465
S'Yolo'
p3466
sS'95613'
p3467
S'El Dorado'
p3468
sS'95610'
p3469
S'Sacramento'
p3470
sS'95611'
p3471
S'Sacramento'
p3472
sS'95616'
p3473
S'Yolo'
p3474
sS'95617'
p3475
S'Yolo'
p3476
sS'95614'
p3477
S'El Dorado'
p3478
sS'95615'
p3479
S'Sacramento'
p3480
sS'90189'
p3481
S'LOS ANGELES'
p3482
sS'95976'
p3483
S'Butte'
p3484
sS'95838'
p3485
S'Sacramento'
p3486
sS'95604'
p3487
S'Placer'
p3488
sS'94404'
p3489
S'SAN MATEO'
p3490
sS'94401'
p3491
S'SAN MATEO'
p3492
sS'94402'
p3493
S'SAN MATEO'
p3494
sS'94403'
p3495
S'SAN MATEO'
p3496
sS'95106'
p3497
S'SANTA CLARA'
p3498
sS'95103'
p3499
S'SANTA CLARA'
p3500
sS'95101'
p3501
S'SANTA CLARA'
p3502
sS'95108'
p3503
S'SANTA CLARA'
p3504
sS'95109'
p3505
S'SANTA CLARA'
p3506
sS'95831'
p3507
S'Sacramento'
p3508
sS'91762'
p3509
S'SAN BERNARDINO'
p3510
sS'91763'
p3511
S'SAN BERNARDINO'
p3512
sS'91761'
p3513
S'SAN BERNARDINO'
p3514
sS'91766'
p3515
S'LOS ANGELES'
p3516
sS'91767'
p3517
S'LOS ANGELES'
p3518
sS'91764'
p3519
S'SAN BERNARDINO'
p3520
sS'91765'
p3521
S'LOS ANGELES'
p3522
sS'95043'
p3523
S'SAN BENITO'
p3524
sS'95042'
p3525
S'SANTA CLARA'
p3526
sS'91768'
p3527
S'LOS ANGELES'
p3528
sS'91769'
p3529
S'LOS ANGELES'
p3530
sS'95046'
p3531
S'SANTA CLARA'
p3532
sS'95045'
p3533
S'SAN BENITO'
p3534
sS'95044'
p3535
S'SANTA CLARA'
p3536
sS'91908'
p3537
S'SAN DIEGO'
p3538
sS'91909'
p3539
S'SAN DIEGO'
p3540
sS'91902'
p3541
S'SAN DIEGO'
p3542
sS'91903'
p3543
S'SAN DIEGO'
p3544
sS'91901'
p3545
S'SAN DIEGO'
p3546
sS'91906'
p3547
S'SAN DIEGO'
p3548
sS'91905'
p3549
S'SAN DIEGO'
p3550
sS'93728'
p3551
S'FRESNO'
p3552
sS'93729'
p3553
S'FRESNO'
p3554
sS'93720'
p3555
S'FRESNO'
p3556
sS'93721'
p3557
S'FRESNO'
p3558
sS'93722'
p3559
S'FRESNO'
p3560
sS'93723'
p3561
S'FRESNO'
p3562
sS'93724'
p3563
S'FRESNO'
p3564
sS'93725'
p3565
S'FRESNO'
p3566
sS'93726'
p3567
S'FRESNO'
p3568
sS'93727'
p3569
S'FRESNO'
p3570
sS'92121'
p3571
S'SAN DIEGO'
p3572
sS'92120'
p3573
S'SAN DIEGO'
p3574
sS'92123'
p3575
S'SAN DIEGO'
p3576
sS'92122'
p3577
S'SAN DIEGO'
p3578
sS'92124'
p3579
S'SAN DIEGO'
p3580
sS'92127'
p3581
S'SAN DIEGO'
p3582
sS'92126'
p3583
S'SAN DIEGO'
p3584
sS'92129'
p3585
S'SAN DIEGO'
p3586
sS'92128'
p3587
S'SAN DIEGO'
p3588
sS'91618'
p3589
S'LOS ANGELES'
p3590
sS'91616'
p3591
S'LOS ANGELES'
p3592
sS'91617'
p3593
S'LOS ANGELES'
p3594
sS'91346'
p3595
S'LOS ANGELES'
p3596
sS'91615'
p3597
S'LOS ANGELES'
p3598
sS'91612'
p3599
S'LOS ANGELES'
p3600
sS'91341'
p3601
S'LOS ANGELES'
p3602
sS'91610'
p3603
S'LOS ANGELES'
p3604
sS'91343'
p3605
S'LOS ANGELES'
p3606
sS'95829'
p3607
S'Sacramento'
p3608
sS'92617'
p3609
S'ORANGE'
p3610
sS'92838'
p3611
S'ORANGE'
p3612
sS'92340'
p3613
S'SAN BERNARDINO'
p3614
sS'92833'
p3615
S'ORANGE'
p3616
sS'92832'
p3617
S'ORANGE'
p3618
sS'92831'
p3619
S'ORANGE'
p3620
sS'95822'
p3621
S'Sacramento'
p3622
sS'92837'
p3623
S'ORANGE'
p3624
sS'92836'
p3625
S'ORANGE'
p3626
sS'92835'
p3627
S'ORANGE'
p3628
sS'92834'
p3629
S'ORANGE'
p3630
sS'93614'
p3631
S'MADERA'
p3632
sS'93615'
p3633
S'TULARE'
p3634
sS'93616'
p3635
S'FRESNO'
p3636
sS'92614'
p3637
S'ORANGE'
p3638
sS'93610'
p3639
S'MADERA'
p3640
sS'93611'
p3641
S'FRESNO'
p3642
sS'93612'
p3643
S'FRESNO'
p3644
sS'93613'
p3645
S'FRESNO'
p3646
sS'93618'
p3647
S'TULARE'
p3648
sS'93619'
p3649
S'FRESNO'
p3650
sS'92612'
p3651
S'ORANGE'
p3652
sS'92610'
p3653
S'ORANGE'
p3654
sS'92583'
p3655
S'RIVERSIDE'
p3656
sS'92582'
p3657
S'RIVERSIDE'
p3658
sS'92581'
p3659
S'RIVERSIDE'
p3660
sS'92587'
p3661
S'RIVERSIDE'
p3662
sS'92586'
p3663
S'RIVERSIDE'
p3664
sS'92585'
p3665
S'RIVERSIDE'
p3666
sS'92584'
p3667
S'RIVERSIDE'
p3668
sS'92235'
p3669
S'RIVERSIDE'
p3670
sS'92234'
p3671
S'RIVERSIDE'
p3672
sS'92589'
p3673
S'RIVERSIDE'
p3674
sS'92236'
p3675
S'RIVERSIDE'
p3676
sS'92231'
p3677
S'IMPERIAL'
p3678
sS'92230'
p3679
S'RIVERSIDE'
p3680
sS'92233'
p3681
S'IMPERIAL'
p3682
sS'92232'
p3683
S'IMPERIAL'
p3684
sS'93750'
p3685
S'FRESNO'
p3686
sS'93216'
p3687
S'KERN'
p3688
sS'95969'
p3689
S'Butte'
p3690
sS'93741'
p3691
S'FRESNO'
p3692
sS'96020'
p3693
S'Plumas'
p3694
sS'93501'
p3695
S'KERN'
p3696
sS'93502'
p3697
S'KERN'
p3698
sS'96023'
p3699
S'Siskiyou'
p3700
sS'93504'
p3701
S'KERN'
p3702
sS'93505'
p3703
S'KERN'
p3704
sS'96027'
p3705
S'Siskiyou'
p3706
sS'96028'
p3707
S'Shasta'
p3708
sS'96029'
p3709
S'Tehama'
p3710
sS'95894'
p3711
S'Sacramento'
p3712
sS'93290'
p3713
S'TULARE'
p3714
sS'93291'
p3715
S'TULARE'
p3716
sS'93292'
p3717
S'TULARE'
p3718
sS'92051'
p3719
S'SAN DIEGO'
p3720
sS'92052'
p3721
S'SAN DIEGO'
p3722
sS'92055'
p3723
S'SAN DIEGO'
p3724
sS'92054'
p3725
S'SAN DIEGO'
p3726
sS'92057'
p3727
S'SAN DIEGO'
p3728
sS'92056'
p3729
S'SAN DIEGO'
p3730
sS'94088'
p3731
S'SANTA CLARA'
p3732
sS'94089'
p3733
S'SANTA CLARA'
p3734
sS'94080'
p3735
S'SAN MATEO'
p3736
sS'94083'
p3737
S'SAN MATEO'
p3738
sS'94085'
p3739
S'SANTA CLARA'
p3740
sS'94086'
p3741
S'SANTA CLARA'
p3742
sS'94087'
p3743
S'SANTA CLARA'
p3744
sS'95116'
p3745
S'SANTA CLARA'
p3746
sS'94248'
p3747
S'SACRAMENTO'
p3748
sS'92227'
p3749
S'IMPERIAL'
p3750
sS'94247'
p3751
S'SACRAMENTO'
p3752
sS'94244'
p3753
S'SACRAMENTO'
p3754
sS'94245'
p3755
S'SACRAMENTO'
p3756
sS'94240'
p3757
S'SACRAMENTO'
p3758
sS'90408'
p3759
S'LOS ANGELES'
p3760
sS'90409'
p3761
S'LOS ANGELES'
p3762
sS'92222'
p3763
S'IMPERIAL'
p3764
sS'90402'
p3765
S'LOS ANGELES'
p3766
sS'90403'
p3767
S'LOS ANGELES'
p3768
sS'90404'
p3769
S'LOS ANGELES'
p3770
sS'90405'
p3771
S'LOS ANGELES'
p3772
sS'90406'
p3773
S'LOS ANGELES'
p3774
sS'92223'
p3775
S'RIVERSIDE'
p3776
sS'96118'
p3777
S'Sierra'
p3778
sS'92220'
p3779
S'RIVERSIDE'
p3780
sS'96114'
p3781
S'Lassen'
p3782
sS'93475'
p3783
S'SAN LUIS OBISPO'
p3784
sS'96116'
p3785
S'Modoc'
p3786
sS'95901'
p3787
S'Yuba'
p3788
sS'96110'
p3789
S'Modoc'
p3790
sS'96111'
p3791
S'Nevada'
p3792
sS'96112'
p3793
S'Modoc'
p3794
sS'96113'
p3795
S'Lassen'
p3796
sS'95449'
p3797
S'Mendocino'
p3798
sS'95448'
p3799
S'Sonoma'
p3800
sS'95446'
p3801
S'Sonoma'
p3802
sS'95445'
p3803
S'Mendocino'
p3804
sS'95444'
p3805
S'Sonoma'
p3806
sS'95443'
p3807
S'Lake'
p3808
sS'95442'
p3809
S'Sonoma'
p3810
sS'95441'
p3811
S'Sonoma'
p3812
sS'95402'
p3813
S'Sonoma'
p3814
sS'94063'
p3815
S'SAN MATEO'
p3816
sS'95406'
p3817
S'Sonoma'
p3818
sS'95973'
p3819
S'Butte'
p3820
sS'94660'
p3821
S'ALAMEDA'
p3822
sS'94661'
p3823
S'ALAMEDA'
p3824
sS'94662'
p3825
S'ALAMEDA'
p3826
sS'94666'
p3827
S'ALAMEDA'
p3828
sS'94066'
p3829
S'SAN MATEO'
p3830
sS'94064'
p3831
S'SAN MATEO'
p3832
sS'94065'
p3833
S'SAN MATEO'
p3834
sS'94062'
p3835
S'SAN MATEO'
p3836
sS'90755'
p3837
S'LOS ANGELES'
p3838
sS'94060'
p3839
S'SAN MATEO'
p3840
sS'94061'
p3841
S'SAN MATEO'
p3842
sS'95960'
p3843
S'Nevada'
p3844
sS'95595'
p3845
S'Trinity'
p3846
sS'95627'
p3847
S'Yolo'
p3848
sS'95626'
p3849
S'Sacramento'
p3850
sS'95625'
p3851
S'Solano'
p3852
sS'95624'
p3853
S'Sacramento'
p3854
sS'95623'
p3855
S'El Dorado'
p3856
sS'95621'
p3857
S'Sacramento'
p3858
sS'95620'
p3859
S'Solano'
p3860
sS'95629'
p3861
S'Amador'
p3862
sS'95628'
p3863
S'Sacramento'
p3864
sS'95696'
p3865
S'Solano'
p3866
sS'95963'
p3867
S'Glenn'
p3868
sS'91110'
p3869
S'LOS ANGELES'
p3870
sS'91115'
p3871
S'LOS ANGELES'
p3872
sS'91114'
p3873
S'LOS ANGELES'
p3874
sS'91117'
p3875
S'LOS ANGELES'
p3876
sS'91116'
p3877
S'LOS ANGELES'
p3878
sS'91118'
p3879
S'LOS ANGELES'
p3880
sS'95697'
p3881
S'Yolo'
p3882
sS'95133'
p3883
S'SANTA CLARA'
p3884
sS'95132'
p3885
S'SANTA CLARA'
p3886
sS'95131'
p3887
S'SANTA CLARA'
p3888
sS'95130'
p3889
S'SANTA CLARA'
p3890
sS'95136'
p3891
S'SANTA CLARA'
p3892
sS'95135'
p3893
S'SANTA CLARA'
p3894
sS'95134'
p3895
S'SANTA CLARA'
p3896
sS'95139'
p3897
S'SANTA CLARA'
p3898
sS'95138'
p3899
S'SANTA CLARA'
p3900
sS'95373'
p3901
S'Tuolumne'
p3902
sS'96008'
p3903
S'Shasta'
p3904
sS'95375'
p3905
S'Tuolumne'
p3906
sS'95054'
p3907
S'SANTA CLARA'
p3908
sS'95055'
p3909
S'SANTA CLARA'
p3910
sS'95056'
p3911
S'SANTA CLARA'
p3912
sS'95050'
p3913
S'SANTA CLARA'
p3914
sS'95051'
p3915
S'SANTA CLARA'
p3916
sS'95052'
p3917
S'SANTA CLARA'
p3918
sS'95053'
p3919
S'SANTA CLARA'
p3920
sS'95966'
p3921
S'Butte'
p3922
sS'94509'
p3923
S'CONTRA COSTA'
p3924
sS'94508'
p3925
S'NAPA'
p3926
sS'91759'
p3927
S'SAN BERNARDINO'
p3928
sS'91758'
p3929
S'SAN BERNARDINO'
p3930
sS'91025'
p3931
S'LOS ANGELES'
p3932
sS'91024'
p3933
S'LOS ANGELES'
p3934
sS'91755'
p3935
S'LOS ANGELES'
p3936
sS'91754'
p3937
S'LOS ANGELES'
p3938
sS'91021'
p3939
S'LOS ANGELES'
p3940
sS'91020'
p3941
S'LOS ANGELES'
p3942
sS'91023'
p3943
S'LOS ANGELES'
p3944
sS'91750'
p3945
S'LOS ANGELES'
p3946
sS'95967'
p3947
S'Butte'
p3948
sS'93268'
p3949
S'KERN'
p3950
sS'94926'
p3951
S'SONOMA'
p3952
sS'92040'
p3953
S'SAN DIEGO'
p3954
sS'92132'
p3955
S'SAN DIEGO'
p3956
sS'92130'
p3957
S'SAN DIEGO'
p3958
sS'92131'
p3959
S'SAN DIEGO'
p3960
sS'92136'
p3961
S'SAN DIEGO'
p3962
sS'92137'
p3963
S'SAN DIEGO'
p3964
sS'92134'
p3965
S'SAN DIEGO'
p3966
sS'92135'
p3967
S'SAN DIEGO'
p3968
sS'93261'
p3969
S'TULARE'
p3970
sS'92138'
p3971
S'SAN DIEGO'
p3972
sS'92139'
p3973
S'SAN DIEGO'
p3974
sS'95714'
p3975
S'Placer'
p3976
sS'95077'
p3977
S'SANTA CRUZ'
p3978
sS'91331'
p3979
S'LOS ANGELES'
p3980
sS'91330'
p3981
S'LOS ANGELES'
p3982
sS'91333'
p3983
S'LOS ANGELES'
p3984
sS'91335'
p3985
S'LOS ANGELES'
p3986
sS'91334'
p3987
S'LOS ANGELES'
p3988
sS'91337'
p3989
S'LOS ANGELES'
p3990
sS'91803'
p3991
S'LOS ANGELES'
p3992
sS'91802'
p3993
S'LOS ANGELES'
p3994
sS'91801'
p3995
S'LOS ANGELES'
p3996
sS'91804'
p3997
S'LOS ANGELES'
p3998
sS'95832'
p3999
S'Sacramento'
p4000
sS'95833'
p4001
S'Sacramento'
p4002
sS'95830'
p4003
S'Sacramento'
p4004
sS'94924'
p4005
S'MARIN'
p4006
sS'95836'
p4007
S'Sacramento'
p4008
sS'95837'
p4009
S'Sacramento'
p4010
sS'95834'
p4011
S'Sacramento'
p4012
sS'95835'
p4013
S'Sacramento'
p4014
sS'93661'
p4015
S'MERCED'
p4016
sS'93660'
p4017
S'FRESNO'
p4018
sS'93662'
p4019
S'FRESNO'
p4020
sS'93665'
p4021
S'MERCED'
p4022
sS'93664'
p4023
S'FRESNO'
p4024
sS'93667'
p4025
S'FRESNO'
p4026
sS'93666'
p4027
S'TULARE'
p4028
sS'93669'
p4029
S'MADERA'
p4030
sS'93668'
p4031
S'FRESNO'
p4032
sS'91935'
p4033
S'SAN DIEGO'
p4034
sS'91934'
p4035
S'SAN DIEGO'
p4036
sS'91933'
p4037
S'SAN DIEGO'
p4038
sS'91932'
p4039
S'SAN DIEGO'
p4040
sS'91931'
p4041
S'SAN DIEGO'
p4042
sS'92226'
p4043
S'RIVERSIDE'
p4044
sS'92595'
p4045
S'RIVERSIDE'
p4046
sS'92596'
p4047
S'RIVERSIDE'
p4048
sS'92225'
p4049
S'RIVERSIDE'
p4050
sS'92590'
p4051
S'RIVERSIDE'
p4052
sS'92591'
p4053
S'RIVERSIDE'
p4054
sS'92592'
p4055
S'RIVERSIDE'
p4056
sS'92593'
p4057
S'RIVERSIDE'
p4058
sS'94922'
p4059
S'SONOMA'
p4060
sS'96016'
p4061
S'Shasta'
p4062
sS'93067'
p4063
S'SANTA BARBARA'
p4064
sS'93066'
p4065
S'VENTURA'
p4066
sS'93065'
p4067
S'VENTURA'
p4068
sS'93064'
p4069
S'VENTURA'
p4070
sS'93063'
p4071
S'VENTURA'
p4072
sS'93062'
p4073
S'VENTURA'
p4074
sS'93061'
p4075
S'VENTURA'
p4076
sS'93060'
p4077
S'VENTURA'
p4078
sS'92825'
p4079
S'ORANGE'
p4080
sS'92049'
p4081
S'SAN DIEGO'
p4082
sS'92821'
p4083
S'ORANGE'
p4084
sS'92822'
p4085
S'ORANGE'
p4086
sS'92823'
p4087
S'ORANGE'
p4088
sS'93265'
p4089
S'TULARE'
p4090
sS'93267'
p4091
S'TULARE'
p4092
sS'93266'
p4093
S'KINGS'
p4094
sS'92046'
p4095
S'SAN DIEGO'
p4096
sS'93260'
p4097
S'TULARE'
p4098
sS'93263'
p4099
S'KERN'
p4100
sS'93262'
p4101
S'TULARE'
p4102
sS'95970'
p4103
S'Glenn'
p4104
sS'94279'
p4105
S'SACRAMENTO'
p4106
sS'94278'
p4107
S'SACRAMENTO'
p4108
sS'95975'
p4109
S'Nevada'
p4110
sS'94273'
p4111
S'SACRAMENTO'
p4112
sS'94271'
p4113
S'SACRAMENTO'
p4114
sS'94623'
p4115
S'ALAMEDA'
p4116
sS'94277'
p4117
S'SACRAMENTO'
p4118
sS'94274'
p4119
S'SACRAMENTO'
p4120
sS'96037'
p4121
S'Siskiyou'
p4122
sS'93409'
p4123
S'SAN LUIS OBISPO'
p4124
sS'93408'
p4125
S'SAN LUIS OBISPO'
p4126
sS'96009'
p4127
S'Lassen'
p4128
sS'93401'
p4129
S'SAN LUIS OBISPO'
p4130
sS'90651'
p4131
S'LOS ANGELES'
p4132
sS'93403'
p4133
S'SAN LUIS OBISPO'
p4134
sS'93402'
p4135
S'SAN LUIS OBISPO'
p4136
sS'93405'
p4137
S'SAN LUIS OBISPO'
p4138
sS'93407'
p4139
S'SAN LUIS OBISPO'
p4140
sS'90302'
p4141
S'LOS ANGELES'
p4142
sS'95458'
p4143
S'Lake'
p4144
sS'95459'
p4145
S'Mendocino'
p4146
sS'94561'
p4147
S'CONTRA COSTA'
p4148
sS'93888'
p4149
S'FRESNO'
p4150
sS'95450'
p4151
S'Sonoma'
p4152
sS'94188'
p4153
S'SAN FRANCISCO'
p4154
sS'95452'
p4155
S'Sonoma'
p4156
sS'95453'
p4157
S'Lake'
p4158
sS'95454'
p4159
S'Mendocino'
p4160
sS'95456'
p4161
S'Mendocino'
p4162
sS'95457'
p4163
S'Lake'
p4164
sS'90501'
p4165
S'LOS ANGELES'
p4166
sS'90503'
p4167
S'LOS ANGELES'
p4168
sS'90502'
p4169
S'LOS ANGELES'
p4170
sS'90505'
p4171
S'LOS ANGELES'
p4172
sS'90504'
p4173
S'LOS ANGELES'
p4174
sS'90507'
p4175
S'LOS ANGELES'
p4176
sS'90506'
p4177
S'LOS ANGELES'
p4178
sS'90509'
p4179
S'LOS ANGELES'
p4180
sS'90508'
p4181
S'LOS ANGELES'
p4182
sS'93314'
p4183
S'KERN'
p4184
sS'93311'
p4185
S'KERN'
p4186
sS'93313'
p4187
S'KERN'
p4188
sS'93312'
p4189
S'KERN'
p4190
sS'95589'
p4191
S'Humboldt'
p4192
sS'95587'
p4193
S'Mendocino'
p4194
sS'95585'
p4195
S'Mendocino'
p4196
sS'90211'
p4197
S'LOS ANGELES'
p4198
sS'90210'
p4199
S'LOS ANGELES'
p4200
sS'90213'
p4201
S'LOS ANGELES'
p4202
sS'90212'
p4203
S'LOS ANGELES'
p4204
sS'90035'
p4205
S'LOS ANGELES'
p4206
sS'90034'
p4207
S'LOS ANGELES'
p4208
sS'90037'
p4209
S'LOS ANGELES'
p4210
sS'90036'
p4211
S'LOS ANGELES'
p4212
sS'90031'
p4213
S'LOS ANGELES'
p4214
sS'90030'
p4215
S'LOS ANGELES'
p4216
sS'90033'
p4217
S'LOS ANGELES'
p4218
sS'90032'
p4219
S'LOS ANGELES'
p4220
sS'96041'
p4221
S'Trinity'
p4222
sS'90039'
p4223
S'LOS ANGELES'
p4224
sS'90038'
p4225
S'LOS ANGELES'
p4226
sS'95630'
p4227
S'Sacramento'
p4228
sS'95631'
p4229
S'Placer'
p4230
sS'95632'
p4231
S'Sacramento'
p4232
sS'95633'
p4233
S'El Dorado'
p4234
sS'95634'
p4235
S'El Dorado'
p4236
sS'95635'
p4237
S'El Dorado'
p4238
sS'95636'
p4239
S'El Dorado'
p4240
sS'95637'
p4241
S'Yolo'
p4242
sS'95638'
p4243
S'Sacramento'
p4244
sS'95639'
p4245
S'Sacramento'
p4246
sS'95208'
p4247
S'SAN JOAQUIN'
p4248
sS'96161'
p4249
S'Nevada'
p4250
sS'95979'
p4251
S'Colusa'
p4252
sS'95978'
p4253
S'Butte'
p4254
sS'95683'
p4255
S'Sacramento'
p4256
sS'95205'
p4257
S'SAN JOAQUIN'
p4258
sS'95204'
p4259
S'SAN JOAQUIN'
p4260
sS'93406'
p4261
S'SAN LUIS OBISPO'
p4262
sS'95207'
p4263
S'SAN JOAQUIN'
p4264
sS'96160'
p4265
S'Nevada'
p4266
sS'95206'
p4267
S'SAN JOAQUIN'
p4268
sS'92253'
p4269
S'RIVERSIDE'
p4270
sS'95972'
p4271
S'Yuba'
p4272
sS'91102'
p4273
S'LOS ANGELES'
p4274
sS'91103'
p4275
S'LOS ANGELES'
p4276
sS'91101'
p4277
S'LOS ANGELES'
p4278
sS'91106'
p4279
S'LOS ANGELES'
p4280
sS'91107'
p4281
S'LOS ANGELES'
p4282
sS'91104'
p4283
S'LOS ANGELES'
p4284
sS'91105'
p4285
S'LOS ANGELES'
p4286
sS'91108'
p4287
S'LOS ANGELES'
p4288
sS'91109'
p4289
S'LOS ANGELES'
p4290
sS'95128'
p4291
S'SANTA CLARA'
p4292
sS'95129'
p4293
S'SANTA CLARA'
p4294
sS'95124'
p4295
S'SANTA CLARA'
p4296
sS'95125'
p4297
S'SANTA CLARA'
p4298
sS'95126'
p4299
S'SANTA CLARA'
p4300
sS'95127'
p4301
S'SANTA CLARA'
p4302
sS'95120'
p4303
S'SANTA CLARA'
p4304
sS'95121'
p4305
S'SANTA CLARA'
p4306
sS'95122'
p4307
S'SANTA CLARA'
p4308
sS'95123'
p4309
S'SANTA CLARA'
p4310
sS'95974'
p4311
S'Butte'
p4312
sS'95451'
p4313
S'Lake'
p4314
sS'91357'
p4315
S'LOS ANGELES'
p4316
sS'96162'
p4317
S'Placer'
p4318
sS'91356'
p4319
S'LOS ANGELES'
p4320
sS'94998'
p4321
S'MARIN'
p4322
sS'94999'
p4323
S'SONOMA'
p4324
sS'95021'
p4325
S'SANTA CLARA'
p4326
sS'95020'
p4327
S'SANTA CLARA'
p4328
sS'95023'
p4329
S'SAN BENITO'
p4330
sS'95024'
p4331
S'SAN BENITO'
p4332
sS'95026'
p4333
S'SANTA CLARA'
p4334
sS'96035'
p4335
S'Tehama'
p4336
sS'91607'
p4337
S'LOS ANGELES'
p4338
sS'91748'
p4339
S'LOS ANGELES'
p4340
sS'91749'
p4341
S'LOS ANGELES'
p4342
sS'91358'
p4343
S'VENTURA'
p4344
sS'94518'
p4345
S'CONTRA COSTA'
p4346
sS'94519'
p4347
S'CONTRA COSTA'
p4348
sS'91740'
p4349
S'LOS ANGELES'
p4350
sS'91741'
p4351
S'LOS ANGELES'
p4352
sS'94514'
p4353
S'CONTRA COSTA'
p4354
sS'91743'
p4355
S'SAN BERNARDINO'
p4356
sS'91744'
p4357
S'LOS ANGELES'
p4358
sS'91745'
p4359
S'LOS ANGELES'
p4360
sS'91030'
p4361
S'LOS ANGELES'
p4362
sS'91031'
p4363
S'LOS ANGELES'
p4364
sS'95141'
p4365
S'SANTA CLARA'
p4366
sS'95971'
p4367
S'Plumas'
p4368
sS'92698'
p4369
S'ORANGE'
p4370
sS'92697'
p4371
S'ORANGE'
p4372
sS'92694'
p4373
S'ORANGE'
p4374
sS'92693'
p4375
S'ORANGE'
p4376
sS'92692'
p4377
S'ORANGE'
p4378
sS'92691'
p4379
S'ORANGE'
p4380
sS'92690'
p4381
S'ORANGE'
p4382
sS'95689'
p4383
S'Amador'
p4384
sS'95338'
p4385
S'Mariposa'
p4386
sS'92109'
p4387
S'SAN DIEGO'
p4388
sS'92108'
p4389
S'SAN DIEGO'
p4390
sS'92107'
p4391
S'SAN DIEGO'
p4392
sS'92106'
p4393
S'SAN DIEGO'
p4394
sS'92105'
p4395
S'SAN DIEGO'
p4396
sS'92104'
p4397
S'SAN DIEGO'
p4398
sS'92103'
p4399
S'SAN DIEGO'
p4400
sS'92102'
p4401
S'SAN DIEGO'
p4402
sS'92101'
p4403
S'SAN DIEGO'
p4404
sS'91328'
p4405
S'LOS ANGELES'
p4406
sS'91329'
p4407
S'LOS ANGELES'
p4408
sS'91322'
p4409
S'LOS ANGELES'
p4410
sS'91320'
p4411
S'VENTURA'
p4412
sS'91321'
p4413
S'LOS ANGELES'
p4414
sS'91326'
p4415
S'LOS ANGELES'
p4416
sS'91327'
p4417
S'LOS ANGELES'
p4418
sS'91324'
p4419
S'LOS ANGELES'
p4420
sS'91325'
p4421
S'LOS ANGELES'
p4422
sS'96158'
p4423
S'El Dorado'
p4424
sS'95851'
p4425
S'Sacramento'
p4426
sS'93673'
p4427
S'TULARE'
p4428
sS'93670'
p4429
S'TULARE'
p4430
sS'93675'
p4431
S'FRESNO'
p4432
sS'96014'
p4433
S'Siskiyou'
p4434
sS'95853'
p4435
S'Sacramento'
p4436
sS'91921'
p4437
S'SAN DIEGO'
p4438
sS'95939'
p4439
S'Glenn'
p4440
sS'95938'
p4441
S'Butte'
p4442
sS'95932'
p4443
S'Colusa'
p4444
sS'92211'
p4445
S'RIVERSIDE'
p4446
sS'92210'
p4447
S'RIVERSIDE'
p4448
sS'95937'
p4449
S'Yolo'
p4450
sS'95936'
p4451
S'Sierra'
p4452
sS'95935'
p4453
S'Yuba'
p4454
sS'95934'
p4455
S'Plumas'
p4456
sS'96085'
p4457
S'Siskiyou'
p4458
sS'96011'
p4459
S'Shasta'
p4460
sS'92075'
p4461
S'SAN DIEGO'
p4462
sS'92074'
p4463
S'SAN DIEGO'
p4464
sS'92072'
p4465
S'SAN DIEGO'
p4466
sS'92071'
p4467
S'SAN DIEGO'
p4468
sS'92070'
p4469
S'SAN DIEGO'
p4470
sS'92079'
p4471
S'SAN DIEGO'
p4472
sS'92078'
p4473
S'SAN DIEGO'
p4474
sS'92675'
p4475
S'ORANGE'
p4476
sS'92850'
p4477
S'ORANGE'
p4478
sS'92677'
p4479
S'ORANGE'
p4480
sS'92676'
p4481
S'ORANGE'
p4482
sS'92673'
p4483
S'ORANGE'
p4484
sS'93279'
p4485
S'TULARE'
p4486
sS'92859'
p4487
S'ORANGE'
p4488
sS'93277'
p4489
S'TULARE'
p4490
sS'93274'
p4491
S'TULARE'
p4492
sS'93275'
p4493
S'TULARE'
p4494
sS'93272'
p4495
S'TULARE'
p4496
sS'92678'
p4497
S'ORANGE'
p4498
sS'93270'
p4499
S'TULARE'
p4500
sS'93271'
p4501
S'TULARE'
p4502
sS'93094'
p4503
S'VENTURA'
p4504
sS'94267'
p4505
S'SACRAMENTO'
p4506
sS'94261'
p4507
S'SACRAMENTO'
p4508
sS'94262'
p4509
S'SACRAMENTO'
p4510
sS'94263'
p4511
S'SACRAMENTO'
p4512
sS'94268'
p4513
S'SACRAMENTO'
p4514
sS'94269'
p4515
S'SACRAMENTO'
p4516
sS'93099'
p4517
S'VENTURA'
p4518
sS'96013'
p4519
S'Shasta'
p4520
sS'94560'
p4521
S'ALAMEDA'
p4522
sS'94536'
p4523
S'ALAMEDA'
p4524
sS'94537'
p4525
S'ALAMEDA'
p4526
sS'93412'
p4527
S'SAN LUIS OBISPO'
p4528
sS'94530'
p4529
S'CONTRA COSTA'
p4530
sS'93410'
p4531
S'SAN LUIS OBISPO'
p4532
sS'94531'
p4533
S'CONTRA COSTA'
p4534
sS'95009'
p4535
S'SANTA CLARA'
p4536
sS'95008'
p4537
S'SANTA CLARA'
p4538
sS'90680'
p4539
S'ORANGE'
p4540
sS'90510'
p4541
S'LOS ANGELES'
p4542
sS'95003'
p4543
S'SANTA CRUZ'
p4544
sS'91504'
p4545
S'LOS ANGELES'
p4546
sS'95002'
p4547
S'SANTA CLARA'
p4548
sS'93306'
p4549
S'KERN'
p4550
sS'93307'
p4551
S'KERN'
p4552
sS'93304'
p4553
S'KERN'
p4554
sS'93305'
p4555
S'KERN'
p4556
sS'93302'
p4557
S'KERN'
p4558
sS'93303'
p4559
S'KERN'
p4560
sS'93301'
p4561
S'KERN'
p4562
sS'93308'
p4563
S'KERN'
p4564
sS'93309'
p4565
S'KERN'
p4566
sS'92322'
p4567
S'SAN BERNARDINO'
p4568
sS'94929'
p4569
S'MARIN'
p4570
sS'94044'
p4571
S'SAN MATEO'
p4572
sS'94928'
p4573
S'SONOMA'
p4574
sS'94040'
p4575
S'SANTA CLARA'
p4576
sS'94041'
p4577
S'SANTA CLARA'
p4578
sS'94042'
p4579
S'SANTA CLARA'
p4580
sS'94043'
p4581
S'SANTA CLARA'
p4582
sS'94927'
p4583
S'SONOMA'
p4584
sS'92637'
p4585
S'ORANGE'
p4586
sS'90209'
p4587
S'LOS ANGELES'
p4588
sS'90202'
p4589
S'LOS ANGELES'
p4590
sS'94925'
p4591
S'MARIN'
p4592
sS'90201'
p4593
S'LOS ANGELES'
p4594
sS'90026'
p4595
S'LOS ANGELES'
p4596
sS'90027'
p4597
S'LOS ANGELES'
p4598
sS'90024'
p4599
S'LOS ANGELES'
p4600
sS'90025'
p4601
S'LOS ANGELES'
p4602
sS'90022'
p4603
S'LOS ANGELES'
p4604
sS'90023'
p4605
S'LOS ANGELES'
p4606
sS'90020'
p4607
S'LOS ANGELES'
p4608
sS'90021'
p4609
S'LOS ANGELES'
p4610
sS'94923'
p4611
S'SONOMA'
p4612
sS'95944'
p4613
S'Sierra'
p4614
sS'90028'
p4615
S'LOS ANGELES'
p4616
sS'90029'
p4617
S'LOS ANGELES'
p4618
sS'95482'
p4619
S'Mendocino'
p4620
sS'95481'
p4621
S'Mendocino'
p4622
sS'95480'
p4623
S'Sonoma'
p4624
sS'95487'
p4625
S'Sonoma'
p4626
sS'95486'
p4627
S'Sonoma'
p4628
sS'95485'
p4629
S'Lake'
p4630
sS'95488'
p4631
S'Mendocino'
p4632
sS'95159'
p4633
S'SANTA CLARA'
p4634
sS'95158'
p4635
S'SANTA CLARA'
p4636
sS'95151'
p4637
S'SANTA CLARA'
p4638
sS'95150'
p4639
S'SANTA CLARA'
p4640
sS'95153'
p4641
S'SANTA CLARA'
p4642
sS'95152'
p4643
S'SANTA CLARA'
p4644
sS'95155'
p4645
S'SANTA CLARA'
p4646
sS'95154'
p4647
S'SANTA CLARA'
p4648
sS'95157'
p4649
S'SANTA CLARA'
p4650
sS'95156'
p4651
S'SANTA CLARA'
p4652
sS'95018'
p4653
S'SANTA CRUZ'
p4654
sS'95019'
p4655
S'SANTA CRUZ'
p4656
sS'95033'
p4657
S'SANTA CRUZ'
p4658
sS'95030'
p4659
S'SANTA CLARA'
p4660
sS'95031'
p4661
S'SANTA CLARA'
p4662
sS'95036'
p4663
S'SANTA CLARA'
p4664
sS'95037'
p4665
S'SANTA CLARA'
p4666
sS'95035'
p4667
S'SANTA CLARA'
p4668
sS'94557'
p4669
S'ALAMEDA'
p4670
sS'94115'
p4671
S'SAN FRANCISCO'
p4672
sS'95388'
p4673
S'Merced'
p4674
sS'91009'
p4675
S'LOS ANGELES'
p4676
sS'91008'
p4677
S'LOS ANGELES'
p4678
sS'91003'
p4679
S'LOS ANGELES'
p4680
sS'94522'
p4681
S'CONTRA COSTA'
p4682
sS'91001'
p4683
S'LOS ANGELES'
p4684
sS'94520'
p4685
S'CONTRA COSTA'
p4686
sS'91007'
p4687
S'LOS ANGELES'
p4688
sS'91006'
p4689
S'LOS ANGELES'
p4690
sS'94525'
p4691
S'CONTRA COSTA'
p4692
sS'94524'
p4693
S'CONTRA COSTA'
p4694
sS'94850'
p4695
S'CONTRA COSTA'
p4696
sS'91793'
p4697
S'LOS ANGELES'
p4698
sS'93041'
p4699
S'VENTURA'
p4700
sS'91791'
p4701
S'LOS ANGELES'
p4702
sS'91790'
p4703
S'LOS ANGELES'
p4704
sS'93040'
p4705
S'VENTURA'
p4706
sS'93043'
p4707
S'VENTURA'
p4708
sS'92688'
p4709
S'ORANGE'
p4710
sS'93042'
p4711
S'VENTURA'
p4712
sS'96033'
p4713
S'Shasta'
p4714
sS'92683'
p4715
S'ORANGE'
p4716
sS'92684'
p4717
S'ORANGE'
p4718
sS'92685'
p4719
S'ORANGE'
p4720
sS'93512'
p4721
S'MONO'
p4722
sS'92118'
p4723
S'SAN DIEGO'
p4724
sS'92119'
p4725
S'SAN DIEGO'
p4726
sS'91313'
p4727
S'LOS ANGELES'
p4728
sS'91311'
p4729
S'LOS ANGELES'
p4730
sS'91310'
p4731
S'LOS ANGELES'
p4732
sS'92110'
p4733
S'SAN DIEGO'
p4734
sS'92111'
p4735
S'SAN DIEGO'
p4736
sS'92112'
p4737
S'SAN DIEGO'
p4738
sS'92113'
p4739
S'SAN DIEGO'
p4740
sS'92114'
p4741
S'SAN DIEGO'
p4742
sS'92115'
p4743
S'SAN DIEGO'
p4744
sS'92116'
p4745
S'SAN DIEGO'
p4746
sS'92117'
p4747
S'SAN DIEGO'
p4748
sS'95251'
p4749
S'CALAVERAS'
p4750
sS'91482'
p4751
S'LOS ANGELES'
p4752
sS'96039'
p4753
S'Siskiyou'
p4754
sS'93649'
p4755
S'FRESNO'
p4756
sS'93648'
p4757
S'FRESNO'
p4758
sS'93647'
p4759
S'TULARE'
p4760
sS'93646'
p4761
S'FRESNO'
p4762
sS'93645'
p4763
S'MADERA'
p4764
sS'93644'
p4765
S'MADERA'
p4766
sS'93643'
p4767
S'MADERA'
p4768
sS'93642'
p4769
S'FRESNO'
p4770
sS'93641'
p4771
S'FRESNO'
p4772
sS'93640'
p4773
S'FRESNO'
p4774
sS'95924'
p4775
S'Nevada'
p4776
sS'95925'
p4777
S'Yuba'
p4778
sS'95926'
p4779
S'Butte'
p4780
sS'95927'
p4781
S'Butte'
p4782
sS'95920'
p4783
S'Glenn'
p4784
sS'92201'
p4785
S'RIVERSIDE'
p4786
sS'92202'
p4787
S'RIVERSIDE'
p4788
sS'92203'
p4789
S'RIVERSIDE'
p4790
sS'95928'
p4791
S'Butte'
p4792
sS'95929'
p4793
S'Butte'
p4794
sS'95378'
p4795
S'San Joaquin'
p4796
sS'93283'
p4797
S'KERN'
p4798
sS'93282'
p4799
S'TULARE'
p4800
sS'95319'
p4801
S'Stanislaus'
p4802
sS'95318'
p4803
S'Mariposa'
p4804
sS'92060'
p4805
S'SAN DIEGO'
p4806
sS'92061'
p4807
S'SAN DIEGO'
p4808
sS'92064'
p4809
S'SAN DIEGO'
p4810
sS'92065'
p4811
S'SAN DIEGO'
p4812
sS'92066'
p4813
S'SAN DIEGO'
p4814
sS'92067'
p4815
S'SAN DIEGO'
p4816
sS'92068'
p4817
S'SAN DIEGO'
p4818
sS'92069'
p4819
S'SAN DIEGO'
p4820
sS'92842'
p4821
S'ORANGE'
p4822
sS'92843'
p4823
S'ORANGE'
p4824
sS'93249'
p4825
S'KERN'
p4826
sS'92841'
p4827
S'ORANGE'
p4828
sS'92846'
p4829
S'ORANGE'
p4830
sS'92663'
p4831
S'ORANGE'
p4832
sS'92844'
p4833
S'ORANGE'
p4834
sS'92845'
p4835
S'ORANGE'
p4836
sS'93243'
p4837
S'KERN'
p4838
sS'93242'
p4839
S'FRESNO'
p4840
sS'93241'
p4841
S'KERN'
p4842
sS'93240'
p4843
S'KERN'
p4844
sS'93247'
p4845
S'TULARE'
p4846
sS'93246'
p4847
S'KINGS'
p4848
sS'93245'
p4849
S'KINGS'
p4850
sS'93244'
p4851
S'TULARE'
p4852
sS'94211'
p4853
S'SACRAMENTO'
p4854
sS'96064'
p4855
S'Siskiyou'
p4856
sS'95380'
p4857
S'Stanislaus'
p4858
sS'93427'
p4859
S'SANTA BARBARA'
p4860
sS'93426'
p4861
S'MONTEREY'
p4862
sS'96145'
p4863
S'Placer'
p4864
sS'93424'
p4865
S'SAN LUIS OBISPO'
p4866
sS'93423'
p4867
S'SAN LUIS OBISPO'
p4868
sS'91505'
p4869
S'LOS ANGELES'
p4870
sS'93421'
p4871
S'SAN LUIS OBISPO'
p4872
sS'93420'
p4873
S'SAN LUIS OBISPO'
p4874
sS'93429'
p4875
S'SANTA BARBARA'
p4876
sS'93428'
p4877
S'SAN LUIS OBISPO'
p4878
sS'92856'
p4879
S'ORANGE'
p4880
sS'95950'
p4881
S'Colusa'
p4882
sS'90835'
p4883
S'LOS ANGELES'
p4884
sS'90834'
p4885
S'LOS ANGELES'
p4886
sS'90831'
p4887
S'LOS ANGELES'
p4888
sS'90833'
p4889
S'LOS ANGELES'
p4890
sS'90832'
p4891
S'LOS ANGELES'
p4892
sS'93930'
p4893
S'MONTEREY'
p4894
sS'93933'
p4895
S'MONTEREY'
p4896
sS'93932'
p4897
S'MONTEREY'
p4898
sS'95736'
p4899
S'Placer'
p4900
sS'96061'
p4901
S'Tehama'
p4902
sS'94039'
p4903
S'SANTA CLARA'
p4904
sS'94038'
p4905
S'SAN MATEO'
p4906
sS'94030'
p4907
S'SAN MATEO'
p4908
sS'94035'
p4909
S'SANTA CLARA'
p4910
sS'90734'
p4911
S'LOS ANGELES'
p4912
sS'94037'
p4913
S'SAN MATEO'
p4914
sS'90239'
p4915
S'LOS ANGELES'
p4916
sS'90233'
p4917
S'LOS ANGELES'
p4918
sS'90232'
p4919
S'LOS ANGELES'
p4920
sS'90231'
p4921
S'LOS ANGELES'
p4922
sS'90230'
p4923
S'LOS ANGELES'
p4924
sS'95955'
p4925
S'Colusa'
p4926
sS'90733'
p4927
S'LOS ANGELES'
p4928
sS'90013'
p4929
S'LOS ANGELES'
p4930
sS'90012'
p4931
S'LOS ANGELES'
p4932
sS'90011'
p4933
S'LOS ANGELES'
p4934
sS'90010'
p4935
S'LOS ANGELES'
p4936
sS'90017'
p4937
S'LOS ANGELES'
p4938
sS'90016'
p4939
S'LOS ANGELES'
p4940
sS'90015'
p4941
S'LOS ANGELES'
p4942
sS'90014'
p4943
S'LOS ANGELES'
p4944
sS'90019'
p4945
S'LOS ANGELES'
p4946
sS'90018'
p4947
S'LOS ANGELES'
p4948
sS'96063'
p4949
S'Tehama'
p4950
sS'94145'
p4951
S'SAN FRANCISCO'
p4952
sS'94144'
p4953
S'SAN FRANCISCO'
p4954
sS'94147'
p4955
S'SAN FRANCISCO'
p4956
sS'94146'
p4957
S'SAN FRANCISCO'
p4958
sS'94141'
p4959
S'SAN FRANCISCO'
p4960
sS'94140'
p4961
S'SAN FRANCISCO'
p4962
sS'94143'
p4963
S'SAN FRANCISCO'
p4964
sS'94142'
p4965
S'SAN FRANCISCO'
p4966
sS'95494'
p4967
S'Mendocino'
p4968
sS'95497'
p4969
S'Sonoma'
p4970
sS'95490'
p4971
S'Mendocino'
p4972
sS'95492'
p4973
S'Sonoma'
p4974
sS'95493'
p4975
S'Lake'
p4976
sS'90307'
p4977
S'LOS ANGELES'
p4978
sS'90306'
p4979
S'LOS ANGELES'
p4980
sS'90305'
p4981
S'LOS ANGELES'
p4982
sS'90304'
p4983
S'LOS ANGELES'
p4984
sS'90303'
p4985
S'LOS ANGELES'
p4986
sS'90650'
p4987
S'LOS ANGELES'
p4988
sS'90301'
p4989
S'LOS ANGELES'
p4990
sS'90652'
p4991
S'LOS ANGELES'
p4992
sS'96069'
p4993
S'Shasta'
p4994
sS'90309'
p4995
S'LOS ANGELES'
p4996
sS'90308'
p4997
S'LOS ANGELES'
p4998
sS'93218'
p4999
S'TULARE'
p5000
sS'91129'
p5001
S'LOS ANGELES'
p5002
sS'91121'
p5003
S'LOS ANGELES'
p5004
sS'91123'
p5005
S'LOS ANGELES'
p5006
sS'91124'
p5007
S'LOS ANGELES'
p5008
sS'91125'
p5009
S'LOS ANGELES'
p5010
sS'91126'
p5011
S'LOS ANGELES'
p5012
sS'96103'
p5013
S'Plumas'
p5014
sS'95148'
p5015
S'SANTA CLARA'
p5016
sS'95140'
p5017
S'SANTA CLARA'
p5018
sS'92250'
p5019
S'IMPERIAL'
p5020
sS'96101'
p5021
S'Modoc'
p5022
sS'92357'
p5023
S'SAN BERNARDINO'
p5024
sS'96105'
p5025
S'Plumas'
p5026
sS'95899'
p5027
S'Sacramento'
p5028
sS'96104'
p5029
S'Modoc'
p5030
sS'95953'
p5031
S'Sutter'
p5032
sS'94534'
p5033
S'SOLANO'
p5034
sS'94535'
p5035
S'SOLANO'
p5036
sS'91016'
p5037
S'LOS ANGELES'
p5038
sS'91017'
p5039
S'LOS ANGELES'
p5040
sS'91010'
p5041
S'LOS ANGELES'
p5042
sS'91011'
p5043
S'LOS ANGELES'
p5044
sS'91012'
p5045
S'LOS ANGELES'
p5046
sS'94533'
p5047
S'SOLANO'
p5048
sS'95007'
p5049
S'SANTA CRUZ'
p5050
sS'95006'
p5051
S'SANTA CRUZ'
p5052
sS'95005'
p5053
S'SANTA CRUZ'
p5054
sS'95004'
p5055
S'MONTEREY'
p5056
sS'94538'
p5057
S'ALAMEDA'
p5058
sS'94539'
p5059
S'ALAMEDA'
p5060
sS'95001'
p5061
S'SANTA CRUZ'
p5062
sS'95954'
p5063
S'Butte'
p5064
sS'95252'
p5065
S'CALAVERAS'
p5066
sS'95957'
p5067
S'Sutter'
p5068
sS'95242'
p5069
S'SAN JOAQUIN'
p5070
sS'95956'
p5071
S'Plumas'
p5072
sS'91508'
p5073
S'LOS ANGELES'
p5074
sS'95958'
p5075
S'Butte'
p5076
sS'95326'
p5077
S'Stanislaus'
p5078
sS'92647'
p5079
S'ORANGE'
p5080
sS'91788'
p5081
S'LOS ANGELES'
p5082
sS'91789'
p5083
S'LOS ANGELES'
p5084
sS'91784'
p5085
S'SAN BERNARDINO'
p5086
sS'91785'
p5087
S'SAN BERNARDINO'
p5088
sS'91786'
p5089
S'SAN BERNARDINO'
p5090
sS'95397'
p5091
S'Stanislaus'
p5092
sS'91780'
p5093
S'LOS ANGELES'
p5094
sS'91301'
p5095
S'LOS ANGELES'
p5096
sS'91302'
p5097
S'LOS ANGELES'
p5098
sS'91303'
p5099
S'LOS ANGELES'
p5100
sS'91304'
p5101
S'LOS ANGELES'
p5102
sS'91305'
p5103
S'LOS ANGELES'
p5104
sS'91306'
p5105
S'LOS ANGELES'
p5106
sS'91307'
p5107
S'LOS ANGELES'
p5108
sS'91308'
p5109
S'LOS ANGELES'
p5110
sS'91309'
p5111
S'LOS ANGELES'
p5112
sS'95311'
p5113
S'Mariposa'
p5114
sS'95310'
p5115
S'Tuolumne'
p5116
sS'95317'
p5117
S'Merced'
p5118
sS'95316'
p5119
S'Stanislaus'
p5120
sS'95315'
p5121
S'Merced'
p5122
sS'95314'
p5123
S'Tuolumne'
p5124
sS'91495'
p5125
S'LOS ANGELES'
p5126
sS'91496'
p5127
S'LOS ANGELES'
p5128
sS'91499'
p5129
S'LOS ANGELES'
p5130
sS'96071'
p5131
S'Shasta'
p5132
sS'91372'
p5133
S'LOS ANGELES'
p5134
sS'92781'
p5135
S'ORANGE'
p5136
sS'92780'
p5137
S'ORANGE'
p5138
sS'92782'
p5139
S'ORANGE'
p5140
sS'95385'
p5141
S'Stanislaus'
p5142
sS'93650'
p5143
S'FRESNO'
p5144
sS'93651'
p5145
S'FRESNO'
p5146
sS'93652'
p5147
S'FRESNO'
p5148
sS'93653'
p5149
S'MADERA'
p5150
sS'93654'
p5151
S'FRESNO'
p5152
sS'95386'
p5153
S'Stanislaus'
p5154
sS'93656'
p5155
S'FRESNO'
p5156
sS'93657'
p5157
S'FRESNO'
p5158
sS'95951'
p5159
S'Glenn'
p5160
sS'92270'
p5161
S'RIVERSIDE'
p5162
sS'92273'
p5163
S'IMPERIAL'
p5164
sS'95387'
p5165
S'Stanislaus'
p5166
sS'92275'
p5167
S'IMPERIAL'
p5168
sS'92274'
p5169
S'RIVERSIDE'
p5170
sS'92277'
p5171
S'SAN BERNARDINO'
p5172
sS'92276'
p5173
S'RIVERSIDE'
p5174
sS'95959'
p5175
S'Nevada'
p5176
sS'92278'
p5177
S'SAN BERNARDINO'
p5178
sS'95381'
p5179
S'Stanislaus'
p5180
sS'95382'
p5181
S'Stanislaus'
p5182
sS'95383'
p5183
S'Tuolumne'
p5184
s.