(dp0
S'all_col_names'
p1
(lp2
S'age_group_MISSING'
p3
aS'age_group_young'
p4
aS'age_group_old'
p5
aS'unit_count'
p6
aS'property_losses_count'
p7
aS'personal_property_worth'
p8
aS'personal_liability'
p9
aS'deductible'
p10
asS'cf_col_map'
p11
ccollections
OrderedDict
p12
((lp13
(lp14
g6
aI01
aa(lp15
g7
aI01
aa(lp16
g8
aI01
aa(lp17
g9
aI01
aa(lp18
g10
aI01
aatp19
Rp20
sS'bf_col_map'
p21
g12
((lp22
(lp23
S'age_group'
p24
ag12
((lp25
(lp26
S'MISSING'
p27
aI01
aa(lp28
S'middle-age'
p29
aI01
aa(lp30
S'young'
p31
aI01
aa(lp32
S'old'
p33
aI01
aatp34
Rp35
aatp36
Rp37
s.